(dp0
S'METTS MARK'
p1
(dp2
S'to_messages'
p3
I0
sS'deferral_payments'
p4
S'NaN'
p5
sS'expenses'
p6
I0
sS'poi'
p7
I00
sS'deferred_income'
p8
g5
sS'email_address'
p9
S'mark.metts@enron.com'
p10
sS'long_term_incentive'
p11
g5
sS'restricted_stock_deferred'
p12
g5
sS'shared_receipt_with_poi'
p13
I0
sS'loan_advances'
p14
g5
sS'from_messages'
p15
I0
sS'other'
p16
I0
sS'flaggedMail'
p17
cnumpy.core.multiarray
scalar
p18
(cnumpy
dtype
p19
(S'i8'
p20
I0
I1
tp21
Rp22
(I3
S'<'
p23
NNNI-1
I-1
I0
tp24
bS'\x00\x00\x00\x00\x00\x00\x00\x00'
p25
tp26
Rp27
sS'toRatio'
p28
F0.21665480239394658
sS'flaggedRatio'
p29
g18
(g19
(S'f8'
p30
I0
I1
tp31
Rp32
(I3
S'<'
p33
NNNI-1
I-1
I0
tp34
bS'\x00\x00\x00\x00\x00\x00\x00\x00'
p35
tp36
Rp37
sS'director_fees'
p38
g5
sS'bonus'
p39
I0
sS'total_stock_value'
p40
I0
sS'from_poi_to_this_person'
p41
I0
sS'from_this_person_to_poi'
p42
I0
sS'salToBonus'
p43
F0.19309813290618982
sS'restricted_stock'
p44
I0
sS'salary'
p45
I0
sS'total_payments'
p46
I0
sS'fromRatio'
p47
F0.034482758620689655
sS'exercised_stock_options'
p48
g5
ssS'BAXTER JOHN C'
p49
(dp50
g3
g5
sg4
I0
sg6
I0
sg7
I00
sg8
I-1
sg9
g5
sg11
I0
sg12
g5
sg13
g5
sg14
g5
sg15
g5
sg16
I0
sg17
S'NaN'
p51
sg28
g51
sg29
g51
sg38
g5
sg39
I0
sg40
I0
sg41
g5
sg42
g5
sg43
F0.07050107917087099
sg44
I0
sg45
I0
sg46
I0
sg47
g51
sg48
I0
ssS'ELLIOTT STEVEN'
p52
(dp53
g3
g5
sg4
g5
sg6
I0
sg7
I00
sg8
I-1
sg9
S'steven.elliott@enron.com'
p54
sg11
g5
sg12
g5
sg13
g5
sg14
g5
sg15
g5
sg16
I0
sg17
g51
sg28
g51
sg29
g51
sg38
g5
sg39
I0
sg40
I0
sg41
g5
sg42
g5
sg43
F0.15469563761577898
sg44
I0
sg45
I0
sg46
I0
sg47
g51
sg48
I0
ssS'CORDES WILLIAM R'
p55
(dp56
g3
I0
sg4
g5
sg6
g5
sg7
I00
sg8
g5
sg9
S'bill.cordes@enron.com'
p57
sg11
g5
sg12
g5
sg13
I0
sg14
g5
sg15
I0
sg16
g5
sg17
g18
(g22
S'\x00\x00\x00\x00\x00\x00\x00\x00'
p58
tp59
Rp60
sg28
F0.060223348557424526
sg29
g18
(g32
S'\x00\x00\x00\x00\x00\x00\x00\x00'
p61
tp62
Rp63
sg38
g5
sg39
g5
sg40
I0
sg41
I0
sg42
I0
sg43
g51
sg44
I0
sg45
g5
sg46
g5
sg47
F0.0
sg48
I0
ssS'HANNON KEVIN P'
p64
(dp65
g3
I0
sg4
g5
sg6
I0
sg7
I01
sg8
I-1
sg9
S'kevin.hannon@enron.com'
p66
sg11
I0
sg12
g5
sg13
I0
sg14
g5
sg15
I0
sg16
I0
sg17
g18
(g22
S'\x05\x00\x00\x00\x00\x00\x00\x00'
p67
tp68
Rp69
sg28
F0.14089382062506361
sg29
g18
(g32
S'\x00\x00\x00\x00\x00\x00\xd4?'
p70
tp71
Rp72
sg38
g5
sg39
I0
sg40
I0
sg41
I0
sg42
I0
sg43
F0.05137339010481004
sg44
I0
sg45
I0
sg46
I0
sg47
F0.65625
sg48
I0
ssS'MORDAUNT KRISTINA M'
p73
(dp74
g3
g5
sg4
g5
sg6
I0
sg7
I00
sg8
g5
sg9
S'kristina.mordaunt@enron.com'
p75
sg11
g5
sg12
g5
sg13
g5
sg14
g5
sg15
g5
sg16
I0
sg17
g51
sg28
g51
sg29
g51
sg38
g5
sg39
I0
sg40
I0
sg41
g5
sg42
g5
sg43
F0.2603029057384881
sg44
I0
sg45
I0
sg46
I0
sg47
g51
sg48
g5
ssS'MEYER ROCKFORD G'
p76
(dp77
g3
I0
sg4
I0
sg6
g5
sg7
I00
sg8
g5
sg9
S'rockford.meyer@enron.com'
p78
sg11
g5
sg12
g5
sg13
I0
sg14
g5
sg15
I0
sg16
g5
sg17
g18
(g22
S'\x02\x00\x00\x00\x00\x00\x00\x00'
p79
tp80
Rp81
sg28
F0.0
sg29
g18
(g32
S'\x92$I\x92$I\xc2?'
p82
tp83
Rp84
sg38
g5
sg39
g5
sg40
I0
sg41
I0
sg42
I0
sg43
g51
sg44
I0
sg45
g5
sg46
I0
sg47
F0.0
sg48
I0
ssS'MCMAHON JEFFREY'
p85
(dp86
g3
I0
sg4
g5
sg6
I0
sg7
I00
sg8
g5
sg9
S'jeffrey.mcmahon@enron.com'
p87
sg11
I0
sg12
g5
sg13
I0
sg14
g5
sg15
I0
sg16
I0
sg17
g18
(g22
S'\x00\x00\x00\x00\x00\x00\x00\x00'
p88
tp89
Rp90
sg28
F0.11331707096715907
sg29
g18
(g32
S'\x00\x00\x00\x00\x00\x00\x00\x00'
p91
tp92
Rp93
sg38
g5
sg39
I0
sg40
I0
sg41
I0
sg42
I0
sg43
F0.04512879915657254
sg44
I0
sg45
I0
sg46
I0
sg47
F0.5416666666666666
sg48
I0
ssS'HORTON STANLEY C'
p94
(dp95
g3
I0
sg4
I0
sg6
g5
sg7
I00
sg8
g5
sg9
S'stanley.horton@enron.com'
p96
sg11
g5
sg12
g5
sg13
I0
sg14
g5
sg15
I0
sg16
g5
sg17
g18
(g22
S'\x06\x00\x00\x00\x00\x00\x00\x00'
p97
tp98
Rp99
sg28
F0.08614757808963332
sg29
g18
(g32
S'\x16\xb5Y\x08m\xe7\x86?'
p100
tp101
Rp102
sg38
g5
sg39
g5
sg40
I0
sg41
I0
sg42
I0
sg43
g51
sg44
I0
sg45
g5
sg46
I0
sg47
F0.013979496738117428
sg48
I0
ssS'PIPER GREGORY F'
p103
(dp104
g3
I0
sg4
I0
sg6
I0
sg7
I00
sg8
I-1
sg9
S'greg.piper@enron.com'
p105
sg11
g5
sg12
I-1
sg13
I0
sg14
g5
sg15
I0
sg16
I0
sg17
g18
(g22
S'\x03\x00\x00\x00\x00\x00\x00\x00'
p106
tp107
Rp108
sg28
F0.22670831471487984
sg29
g18
(g32
S'\xd0\xba\xc1\x14\xf9\xac\x9b?'
p109
tp110
Rp111
sg38
g5
sg39
I0
sg40
I0
sg41
I0
sg42
I0
sg43
F0.15606541540160088
sg44
I0
sg45
I0
sg46
I0
sg47
F0.21621621621621623
sg48
I0
ssS'HUMPHREY GENE E'
p112
(dp113
g3
I0
sg4
I0
sg6
I0
sg7
I00
sg8
g5
sg9
S'gene.humphrey@enron.com'
p114
sg11
g5
sg12
g5
sg13
I0
sg14
g5
sg15
I0
sg16
g5
sg17
g18
(g22
S'\x00\x00\x00\x00\x00\x00\x00\x00'
p115
tp116
Rp117
sg28
F0.35945811170212766
sg29
g18
(g32
S'\x00\x00\x00\x00\x00\x00\x00\x00'
p118
tp119
Rp120
sg38
g5
sg39
g5
sg40
I0
sg41
I0
sg42
I0
sg43
g51
sg44
g5
sg45
I0
sg46
I0
sg47
F1.0
sg48
I0
ssS'UMANOFF ADAM S'
p121
(dp122
g3
I0
sg4
g5
sg6
I0
sg7
I00
sg8
g5
sg9
S'adam.umanoff@enron.com'
p123
sg11
g5
sg12
g5
sg13
I0
sg14
g5
sg15
I0
sg16
g5
sg17
g18
(g22
S'\x00\x00\x00\x00\x00\x00\x00\x00'
p124
tp125
Rp126
sg28
F0.4974123059229442
sg29
g18
(g32
S'\x00\x00\x00\x00\x00\x00\x00\x00'
p127
tp128
Rp129
sg38
g5
sg39
I0
sg40
g5
sg41
I0
sg42
I0
sg43
F0.11588848142433301
sg44
g5
sg45
I0
sg46
I0
sg47
F0.0
sg48
g5
ssS'BLACHMAN JEREMY M'
p130
(dp131
g3
I0
sg4
g5
sg6
I0
sg7
I00
sg8
g5
sg9
S'jeremy.blachman@enron.com'
p132
sg11
I0
sg12
g5
sg13
I0
sg14
g5
sg15
I0
sg16
I0
sg17
g18
(g22
S'\x00\x00\x00\x00\x00\x00\x00\x00'
p133
tp134
Rp135
sg28
F0.046475392220073075
sg29
g18
(g32
S'\x00\x00\x00\x00\x00\x00\x00\x00'
p136
tp137
Rp138
sg38
g5
sg39
I0
sg40
I0
sg41
I0
sg42
I0
sg43
F0.09261636320614226
sg44
I0
sg45
I0
sg46
I0
sg47
F0.14285714285714285
sg48
I0
ssS'SUNDE MARTIN'
p139
(dp140
g3
I0
sg4
g5
sg6
g5
sg7
I00
sg8
g5
sg9
S'marty.sunde@enron.com'
p141
sg11
I0
sg12
g5
sg13
I0
sg14
g5
sg15
I0
sg16
I0
sg17
g18
(g22
S'\x01\x00\x00\x00\x00\x00\x00\x00'
p142
tp143
Rp144
sg28
F0.06431407695584725
sg29
g18
(g32
S'(\xaf\xa1\xbc\x86\xf2\xaa?'
p145
tp146
Rp147
sg38
g5
sg39
I0
sg40
I0
sg41
I0
sg42
I0
sg43
F0.11650792070695873
sg44
I0
sg45
I0
sg46
I0
sg47
F0.34210526315789475
sg48
g5
ssS'GIBBS DANA R'
p148
(dp149
g3
I0
sg4
I0
sg6
g5
sg7
I00
sg8
g5
sg9
S'dana.gibbs@enron.com'
p150
sg11
I0
sg12
g5
sg13
I0
sg14
g5
sg15
I0
sg16
g5
sg17
g18
(g22
S'\x00\x00\x00\x00\x00\x00\x00\x00'
p151
tp152
Rp153
sg28
F0.0
sg29
g18
(g32
S'\x00\x00\x00\x00\x00\x00\x00\x00'
p154
tp155
Rp156
sg38
g5
sg39
g5
sg40
I0
sg41
I0
sg42
I0
sg43
g51
sg44
g5
sg45
g5
sg46
I0
sg47
F0.0
sg48
I0
ssS'LOWRY CHARLES P'
p157
(dp158
g3
g5
sg4
g5
sg6
g5
sg7
I00
sg8
g5
sg9
g5
sg11
g5
sg12
I-1
sg13
g5
sg14
g5
sg15
g5
sg16
g5
sg17
g51
sg28
g51
sg29
g51
sg38
g5
sg39
g5
sg40
I0
sg41
g5
sg42
g5
sg43
g51
sg44
I0
sg45
g5
sg46
g5
sg47
g51
sg48
I0
ssS'COLWELL WESLEY'
p159
(dp160
g3
I0
sg4
I0
sg6
I0
sg7
I01
sg8
I-1
sg9
S'wes.colwell@enron.com'
p161
sg11
g5
sg12
g5
sg13
I0
sg14
g5
sg15
I0
sg16
I0
sg17
g18
(g22
S'\x0b\x00\x00\x00\x00\x00\x00\x00'
p162
tp163
Rp164
sg28
F0.6281315808583254
sg29
g18
(g32
S'\x9a\x99\x99\x99\x99\x99\xe1?'
p165
tp166
Rp167
sg38
g5
sg39
I0
sg40
I0
sg41
I0
sg42
I0
sg43
F0.07616012753974682
sg44
I0
sg45
I0
sg46
I0
sg47
F0.275
sg48
g5
ssS'MULLER MARK S'
p168
(dp169
g3
I0
sg4
I0
sg6
g5
sg7
I00
sg8
I-1
sg9
S's..muller@enron.com'
p170
sg11
I0
sg12
g5
sg13
I0
sg14
g5
sg15
I0
sg16
I0
sg17
g18
(g22
S'\x01\x00\x00\x00\x00\x00\x00\x00'
p171
tp172
Rp173
sg28
F0.4059762202753442
sg29
g18
(g32
S'\x00\x00\x00\x00\x00\x00\xc0?'
p174
tp175
Rp176
sg38
g5
sg39
I0
sg40
I0
sg41
I0
sg42
I0
sg43
F0.07246211795561805
sg44
I0
sg45
I0
sg46
I0
sg47
F0.0
sg48
I0
ssS'JACKSON CHARLENE R'
p177
(dp178
g3
I0
sg4
g5
sg6
I0
sg7
I00
sg8
g5
sg9
S'charlene.jackson@enron.com'
p179
sg11
g5
sg12
g5
sg13
I0
sg14
g5
sg15
I0
sg16
I0
sg17
g18
(g22
S'\x00\x00\x00\x00\x00\x00\x00\x00'
p180
tp181
Rp182
sg28
F0.4458395183902359
sg29
g18
(g32
S'\x00\x00\x00\x00\x00\x00\x00\x00'
p183
tp184
Rp185
sg38
g5
sg39
I0
sg40
I0
sg41
I0
sg42
I0
sg43
F0.3655888834088225
sg44
I0
sg45
I0
sg46
I0
sg47
F0.3392857142857143
sg48
I0
ssS'WESTFAHL RICHARD K'
p186
(dp187
g3
g5
sg4
g5
sg6
I0
sg7
I00
sg8
I-1
sg9
S'dick.westfahl@enron.com'
p188
sg11
I0
sg12
g5
sg13
g5
sg14
g5
sg15
g5
sg16
I0
sg17
g51
sg28
g51
sg29
g51
sg38
g5
sg39
g5
sg40
I0
sg41
g5
sg42
g5
sg43
g51
sg44
I0
sg45
I0
sg46
I0
sg47
g51
sg48
g5
ssS'WALTERS GARETH W'
p189
(dp190
g3
g5
sg4
I0
sg6
I0
sg7
I00
sg8
g5
sg9
g5
sg11
g5
sg12
g5
sg13
g5
sg14
g5
sg15
g5
sg16
g5
sg17
g51
sg28
g51
sg29
g51
sg38
g5
sg39
g5
sg40
I0
sg41
g5
sg42
g5
sg43
g51
sg44
g5
sg45
g5
sg46
I0
sg47
g51
sg48
I0
ssS'WALLS JR ROBERT H'
p191
(dp192
g3
I0
sg4
g5
sg6
I0
sg7
I00
sg8
g5
sg9
S'rob.walls@enron.com'
p193
sg11
I0
sg12
g5
sg13
I0
sg14
g5
sg15
I0
sg16
I0
sg17
g18
(g22
S'\x02\x00\x00\x00\x00\x00\x00\x00'
p194
tp195
Rp196
sg28
F0.11656942638805212
sg29
g18
(g32
S'\xe0\xc0\x81\x03\x07\x0e\x9c?'
p197
tp198
Rp199
sg38
g5
sg39
I0
sg40
I0
sg41
I0
sg42
I0
sg43
F0.13306377794711863
sg44
I0
sg45
I0
sg46
I0
sg47
F0.0
sg48
I0
ssS'KITCHEN LOUISE'
p200
(dp201
g3
I0
sg4
g5
sg6
I0
sg7
I00
sg8
g5
sg9
S'louise.kitchen@enron.com'
p202
sg11
g5
sg12
g5
sg13
I0
sg14
g5
sg15
I0
sg16
I0
sg17
g18
(g22
S'\x0f\x00\x00\x00\x00\x00\x00\x00'
p203
tp204
Rp205
sg28
F0.1390568357948941
sg29
g18
(g32
S'r\x1c\xc7q\x1c\xc7\x91?'
p206
tp207
Rp208
sg38
g5
sg39
I0
sg40
I0
sg41
I0
sg42
I0
sg43
F0.027734173218784214
sg44
I0
sg45
I0
sg46
I0
sg47
F0.11226851851851852
sg48
I0
ssS'CHAN RONNIE'
p209
(dp210
g3
g5
sg4
g5
sg6
g5
sg7
I00
sg8
I-1
sg9
g5
sg11
g5
sg12
I-1
sg13
g5
sg14
g5
sg15
g5
sg16
g5
sg17
g51
sg28
g51
sg29
g51
sg38
I0
sg39
g5
sg40
g5
sg41
g5
sg42
g5
sg43
g51
sg44
I0
sg45
g5
sg46
g5
sg47
g51
sg48
g5
ssS'BELFER ROBERT'
p211
(dp212
g3
g5
sg4
I-1
sg6
g5
sg7
I00
sg8
g5
sg9
g5
sg11
g5
sg12
I0
sg13
g5
sg14
g5
sg15
g5
sg16
g5
sg17
g51
sg28
g51
sg29
g51
sg38
I0
sg39
g5
sg40
I-1
sg41
g5
sg42
g5
sg43
g51
sg44
g5
sg45
g5
sg46
I0
sg47
g51
sg48
I0
ssS'SHANKMAN JEFFREY A'
p213
(dp214
g3
I0
sg4
g5
sg6
I0
sg7
I00
sg8
g5
sg9
S'jeffrey.shankman@enron.com'
p215
sg11
I0
sg12
g5
sg13
I0
sg14
g5
sg15
I0
sg16
I0
sg17
g18
(g22
S'\x1a\x00\x00\x00\x00\x00\x00\x00'
p216
tp217
Rp218
sg28
F0.13427506985408258
sg29
g18
(g32
S'd(\xe1\x9az\xdc\x93?'
p219
tp220
Rp221
sg38
g5
sg39
I0
sg40
I0
sg41
I0
sg42
I0
sg43
F0.048161563417691164
sg44
I0
sg45
I0
sg46
I0
sg47
F0.030958597538232
sg48
I0
ssS'WODRASKA JOHN'
p222
(dp223
g3
g5
sg4
g5
sg6
g5
sg7
I00
sg8
g5
sg9
S'john.wodraska@enron.com'
p224
sg11
g5
sg12
g5
sg13
g5
sg14
g5
sg15
g5
sg16
I0
sg17
g51
sg28
g51
sg29
g51
sg38
g5
sg39
g5
sg40
g5
sg41
g5
sg42
g5
sg43
g51
sg44
g5
sg45
g5
sg46
I0
sg47
g51
sg48
g5
ssS'BERGSIEKER RICHARD P'
p225
(dp226
g3
I0
sg4
g5
sg6
I0
sg7
I00
sg8
I-1
sg9
S'rick.bergsieker@enron.com'
p227
sg11
I0
sg12
g5
sg13
I0
sg14
g5
sg15
I0
sg16
I0
sg17
g18
(g22
S'\x00\x00\x00\x00\x00\x00\x00\x00'
p228
tp229
Rp230
sg28
F0.04805288595078051
sg29
g18
(g32
S'\x00\x00\x00\x00\x00\x00\x00\x00'
p231
tp232
Rp233
sg38
g5
sg39
I0
sg40
I0
sg41
I0
sg42
I0
sg43
F0.23808798975579518
sg44
I0
sg45
I0
sg46
I0
sg47
F0.0
sg48
g5
ssS'URQUHART JOHN A'
p234
(dp235
g3
g5
sg4
g5
sg6
I0
sg7
I00
sg8
I-1
sg9
g5
sg11
g5
sg12
g5
sg13
g5
sg14
g5
sg15
g5
sg16
g5
sg17
g51
sg28
g51
sg29
g51
sg38
I0
sg39
g5
sg40
g5
sg41
g5
sg42
g5
sg43
g51
sg44
g5
sg45
g5
sg46
I0
sg47
g51
sg48
g5
ssS'BIBI PHILIPPE A'
p236
(dp237
g3
I0
sg4
g5
sg6
I0
sg7
I00
sg8
g5
sg9
S'philippe.bibi@enron.com'
p238
sg11
I0
sg12
g5
sg13
I0
sg14
g5
sg15
I0
sg16
I0
sg17
g18
(g22
S'\x01\x00\x00\x00\x00\x00\x00\x00'
p239
tp240
Rp241
sg28
F0.06585218922533066
sg29
g18
(g32
S'\x9a\x99\x99\x99\x99\x99\xa9?'
p242
tp243
Rp244
sg38
g5
sg39
I0
sg40
I0
sg41
I0
sg42
I0
sg43
F0.067663108645584
sg44
I0
sg45
I0
sg46
I0
sg47
F0.2
sg48
I0
ssS'RIEKER PAULA H'
p245
(dp246
g3
I0
sg4
I0
sg6
I0
sg7
I01
sg8
I-1
sg9
S'paula.rieker@enron.com'
p247
sg11
g5
sg12
g5
sg13
I0
sg14
g5
sg15
I0
sg16
I0
sg17
g18
(g22
S'\x16\x00\x00\x00\x00\x00\x00\x00'
p248
tp249
Rp250
sg28
F0.12126297744168163
sg29
g18
(g32
S',Q\xbb\x12\xb5+\xe1?'
p251
tp252
Rp253
sg38
g5
sg39
I0
sg40
I0
sg41
I0
sg42
I0
sg43
F0.11275910281760881
sg44
I0
sg45
I0
sg46
I0
sg47
F0.5853658536585366
sg48
I0
ssS'WHALEY DAVID A'
p254
(dp255
g3
g5
sg4
g5
sg6
g5
sg7
I00
sg8
g5
sg9
g5
sg11
g5
sg12
g5
sg13
g5
sg14
g5
sg15
g5
sg16
g5
sg17
g51
sg28
g51
sg29
g51
sg38
g5
sg39
g5
sg40
I0
sg41
g5
sg42
g5
sg43
g51
sg44
g5
sg45
g5
sg46
g5
sg47
g51
sg48
I0
ssS'BECK SALLY W'
p256
(dp257
g3
I0
sg4
g5
sg6
I0
sg7
I00
sg8
g5
sg9
S'sally.beck@enron.com'
p258
sg11
g5
sg12
g5
sg13
I0
sg14
g5
sg15
I0
sg16
I0
sg17
g18
(g22
S'+\x00\x00\x00\x00\x00\x00\x00'
p259
tp260
Rp261
sg28
F0.09057459897325518
sg29
g18
(g32
S'\xfb\xd9be\xf8F\x94?'
p262
tp263
Rp264
sg38
g5
sg39
I0
sg40
I0
sg41
I0
sg42
I0
sg43
F0.10467278724723195
sg44
I0
sg45
I0
sg46
I0
sg47
F0.08887865530739121
sg48
g5
ssS'HAUG DAVID L'
p265
(dp266
g3
I0
sg4
g5
sg6
I0
sg7
I00
sg8
g5
sg9
S'david.haug@enron.com'
p267
sg11
g5
sg12
g5
sg13
I0
sg14
g5
sg15
I0
sg16
g5
sg17
g18
(g22
S'\x01\x00\x00\x00\x00\x00\x00\x00'
p268
tp269
Rp270
sg28
F0.032119119230626415
sg29
g18
(g32
S'(\xaf\xa1\xbc\x86\xf2\xba?'
p271
tp272
Rp273
sg38
g5
sg39
g5
sg40
I0
sg41
I0
sg42
I0
sg43
g51
sg44
I0
sg45
g5
sg46
I0
sg47
F0.3684210526315789
sg48
g5
ssS'ECHOLS JOHN B'
p274
(dp275
g3
g5
sg4
g5
sg6
I0
sg7
I00
sg8
g5
sg9
S'john.echols@enron.com'
p276
sg11
I0
sg12
g5
sg13
g5
sg14
g5
sg15
g5
sg16
I0
sg17
g51
sg28
g51
sg29
g51
sg38
g5
sg39
I0
sg40
I0
sg41
g5
sg42
g5
sg43
F0.2886193852572137
sg44
I0
sg45
I0
sg46
I0
sg47
g51
sg48
I0
ssS'MENDELSOHN JOHN'
p277
(dp278
g3
g5
sg4
g5
sg6
I0
sg7
I00
sg8
I-1
sg9
g5
sg11
g5
sg12
g5
sg13
g5
sg14
g5
sg15
g5
sg16
g5
sg17
g51
sg28
g51
sg29
g51
sg38
I0
sg39
g5
sg40
g5
sg41
g5
sg42
g5
sg43
g51
sg44
g5
sg45
g5
sg46
I0
sg47
g51
sg48
g5
ssS'HICKERSON GARY J'
p279
(dp280
g3
I0
sg4
g5
sg6
I0
sg7
I00
sg8
g5
sg9
S'gary.hickerson@enron.com'
p281
sg11
I0
sg12
g5
sg13
I0
sg14
g5
sg15
I0
sg16
I0
sg17
g18
(g22
S'\x00\x00\x00\x00\x00\x00\x00\x00'
p282
tp283
Rp284
sg28
F0.13942617666021923
sg29
g18
(g32
S'\x00\x00\x00\x00\x00\x00\x00\x00'
p285
tp286
Rp287
sg38
g5
sg39
I0
sg40
I0
sg41
I0
sg42
I0
sg43
F0.03945956549431988
sg44
I0
sg45
I0
sg46
I0
sg47
F0.037037037037037035
sg48
g5
ssS'CLINE KENNETH W'
p288
(dp289
g3
g5
sg4
g5
sg6
g5
sg7
I00
sg8
g5
sg9
g5
sg11
g5
sg12
I-1
sg13
g5
sg14
g5
sg15
g5
sg16
g5
sg17
g51
sg28
g51
sg29
g51
sg38
g5
sg39
g5
sg40
I0
sg41
g5
sg42
g5
sg43
g51
sg44
I0
sg45
g5
sg46
g5
sg47
g51
sg48
g5
ssS'LEWIS RICHARD'
p290
(dp291
g3
I0
sg4
g5
sg6
g5
sg7
I00
sg8
g5
sg9
S'richard.lewis@enron.com'
p292
sg11
g5
sg12
g5
sg13
I0
sg14
g5
sg15
I0
sg16
g5
sg17
g18
(g22
S'\x01\x00\x00\x00\x00\x00\x00\x00'
p293
tp294
Rp295
sg28
F0.048330502413731456
sg29
g18
(g32
S'\x14;\xb1\x13;\xb1\xb3?'
p296
tp297
Rp298
sg38
g5
sg39
g5
sg40
I0
sg41
I0
sg42
I0
sg43
g51
sg44
g5
sg45
g5
sg46
g5
sg47
F0.0
sg48
I0
ssS'HAYES ROBERT E'
p299
(dp300
g3
I0
sg4
I0
sg6
g5
sg7
I00
sg8
g5
sg9
S'robert.hayes@enron.com'
p301
sg11
g5
sg12
g5
sg13
I0
sg14
g5
sg15
I0
sg16
g5
sg17
g18
(g22
S'\x00\x00\x00\x00\x00\x00\x00\x00'
p302
tp303
Rp304
sg28
F0.14606551840594392
sg29
g18
(g32
S'\x00\x00\x00\x00\x00\x00\x00\x00'
p305
tp306
Rp307
sg38
g5
sg39
g5
sg40
I0
sg41
I0
sg42
I0
sg43
g51
sg44
I0
sg45
g5
sg46
I0
sg47
F0.0
sg48
g5
ssS'MCCARTY DANNY J'
p308
(dp309
g3
I0
sg4
g5
sg6
g5
sg7
I00
sg8
g5
sg9
S'danny.mccarty@enron.com'
p310
sg11
g5
sg12
g5
sg13
I0
sg14
g5
sg15
I0
sg16
g5
sg17
g18
(g22
S'\x02\x00\x00\x00\x00\x00\x00\x00'
p311
tp312
Rp313
sg28
F0.08026978070110317
sg29
g18
(g32
S'\x90\xd10\x01\x19\r\x93?'
p314
tp315
Rp316
sg38
g5
sg39
g5
sg40
I0
sg41
I0
sg42
I0
sg43
g51
sg44
I0
sg45
g5
sg46
g5
sg47
F0.009302325581395349
sg48
I0
ssS'KOPPER MICHAEL J'
p317
(dp318
g3
g5
sg4
g5
sg6
I0
sg7
I01
sg8
g5
sg9
S'michael.kopper@enron.com'
p319
sg11
I0
sg12
g5
sg13
g5
sg14
g5
sg15
g5
sg16
I0
sg17
g51
sg28
g51
sg29
g51
sg38
g5
sg39
I0
sg40
I0
sg41
g5
sg42
g5
sg43
F0.08880733519454488
sg44
I0
sg45
I0
sg46
I0
sg47
g51
sg48
g5
ssS'LEFF DANIEL P'
p320
(dp321
g3
I0
sg4
g5
sg6
g5
sg7
I00
sg8
g5
sg9
S'dan.leff@enron.com'
p322
sg11
I0
sg12
g5
sg13
I0
sg14
g5
sg15
I0
sg16
I0
sg17
g18
(g22
S'\x03\x00\x00\x00\x00\x00\x00\x00'
p323
tp324
Rp325
sg28
F0.10923858135922916
sg29
g18
(g32
S'\x18\x86a\x18\x86a\xb8?'
p326
tp327
Rp328
sg38
g5
sg39
I0
sg40
I0
sg41
I0
sg42
I0
sg43
F0.08670570082759058
sg44
I0
sg45
I0
sg46
I0
sg47
F0.2222222222222222
sg48
g5
ssS'LAVORATO JOHN J'
p329
(dp330
g3
I0
sg4
g5
sg6
I0
sg7
I00
sg8
g5
sg9
S'john.lavorato@enron.com'
p331
sg11
I0
sg12
g5
sg13
I0
sg14
g5
sg15
I0
sg16
I0
sg17
g18
(g22
S'\x07\x00\x00\x00\x00\x00\x00\x00'
p332
tp333
Rp334
sg28
F0.33466892163213385
sg29
g18
(g32
S'\x0e\xf0\xc8\x0b\xf1.v?'
p335
tp336
Rp337
sg38
g5
sg39
I1
sg40
I0
sg41
I1
sg42
I0
sg43
F0.013433166065619019
sg44
I0
sg45
I0
sg46
I0
sg47
F0.15899419729206962
sg48
I0
ssS'BERBERIAN DAVID'
p338
(dp339
g3
g5
sg4
g5
sg6
I0
sg7
I00
sg8
g5
sg9
S'david.berberian@enron.com'
p340
sg11
g5
sg12
g5
sg13
g5
sg14
g5
sg15
g5
sg16
g5
sg17
g51
sg28
g51
sg29
g51
sg38
g5
sg39
g5
sg40
I0
sg41
g5
sg42
g5
sg43
g51
sg44
I0
sg45
I0
sg46
I0
sg47
g51
sg48
I0
ssS'DETMERING TIMOTHY J'
p341
(dp342
g3
g5
sg4
I0
sg6
I0
sg7
I00
sg8
I-1
sg9
S'timothy.detmering@enron.com'
p343
sg11
I0
sg12
I-1
sg13
g5
sg14
g5
sg15
g5
sg16
I0
sg17
g51
sg28
g51
sg29
g51
sg38
g5
sg39
I0
sg40
I0
sg41
g5
sg42
g5
sg43
F0.15687836018196186
sg44
I0
sg45
I0
sg46
I0
sg47
g51
sg48
I0
ssS'WAKEHAM JOHN'
p344
(dp345
g3
g5
sg4
g5
sg6
I0
sg7
I00
sg8
g5
sg9
g5
sg11
g5
sg12
g5
sg13
g5
sg14
g5
sg15
g5
sg16
g5
sg17
g51
sg28
g51
sg29
g51
sg38
I0
sg39
g5
sg40
g5
sg41
g5
sg42
g5
sg43
g51
sg44
g5
sg45
g5
sg46
I0
sg47
g51
sg48
g5
ssS'POWERS WILLIAM'
p346
(dp347
g3
I0
sg4
g5
sg6
g5
sg7
I00
sg8
I-1
sg9
S'ken.powers@enron.com'
p348
sg11
g5
sg12
g5
sg13
I0
sg14
g5
sg15
I0
sg16
g5
sg17
g18
(g22
S'\x00\x00\x00\x00\x00\x00\x00\x00'
p349
tp350
Rp351
sg28
F0.0
sg29
g18
(g32
S'\x00\x00\x00\x00\x00\x00\x00\x00'
p352
tp353
Rp354
sg38
I0
sg39
g5
sg40
g5
sg41
I0
sg42
I0
sg43
g51
sg44
g5
sg45
g5
sg46
g5
sg47
F0.0
sg48
g5
ssS'GOLD JOSEPH'
p355
(dp356
g3
g5
sg4
g5
sg6
g5
sg7
I00
sg8
g5
sg9
S'joe.gold@enron.com'
p357
sg11
I0
sg12
g5
sg13
g5
sg14
g5
sg15
g5
sg16
I0
sg17
g51
sg28
g51
sg29
g51
sg38
g5
sg39
I0
sg40
I0
sg41
g5
sg42
g5
sg43
F0.11524187454468944
sg44
I0
sg45
I0
sg46
I0
sg47
g51
sg48
I0
ssS'BANNANTINE JAMES M'
p358
(dp359
g3
I0
sg4
g5
sg6
I0
sg7
I00
sg8
I-1
sg9
S'james.bannantine@enron.com'
p360
sg11
g5
sg12
I-1
sg13
I0
sg14
g5
sg15
I0
sg16
I0
sg17
g18
(g22
S'\x00\x00\x00\x00\x00\x00\x00\x00'
p361
tp362
Rp363
sg28
F0.3170344335012405
sg29
g18
(g32
S'\x00\x00\x00\x00\x00\x00\x00\x00'
p364
tp365
Rp366
sg38
g5
sg39
g5
sg40
I0
sg41
I0
sg42
I0
sg43
g51
sg44
I0
sg45
I0
sg46
I0
sg47
F0.0
sg48
I0
ssS'DUNCAN JOHN H'
p367
(dp368
g3
g5
sg4
g5
sg6
g5
sg7
I00
sg8
I-1
sg9
g5
sg11
g5
sg12
g5
sg13
g5
sg14
g5
sg15
g5
sg16
g5
sg17
g51
sg28
g51
sg29
g51
sg38
I0
sg39
g5
sg40
I0
sg41
g5
sg42
g5
sg43
g51
sg44
g5
sg45
g5
sg46
I0
sg47
g51
sg48
I0
ssS'SHAPIRO RICHARD S'
p369
(dp370
g3
I1
sg4
g5
sg6
I0
sg7
I00
sg8
g5
sg9
S'richard.shapiro@enron.com'
p371
sg11
g5
sg12
g5
sg13
I0
sg14
g5
sg15
I0
sg16
I0
sg17
g18
(g22
S'\n\x00\x00\x00\x00\x00\x00\x00'
p372
tp373
Rp374
sg28
F0.02247532664890457
sg29
g18
(g32
S'\x96F\x8f\xa8 \xdb\x90?'
p375
tp376
Rp377
sg38
g5
sg39
I0
sg40
I0
sg41
I0
sg42
I0
sg43
F0.13111774674830382
sg44
I0
sg45
I0
sg46
I0
sg47
F0.053497942386831275
sg48
I0
ssS'SHERRIFF JOHN R'
p378
(dp379
g3
I0
sg4
g5
sg6
g5
sg7
I00
sg8
g5
sg9
S'john.sherriff@enron.com'
p380
sg11
I0
sg12
g5
sg13
I0
sg14
g5
sg15
I0
sg16
I0
sg17
g18
(g22
S'\x00\x00\x00\x00\x00\x00\x00\x00'
p381
tp382
Rp383
sg28
F0.040423529097597284
sg29
g18
(g32
S'\x00\x00\x00\x00\x00\x00\x00\x00'
p384
tp385
Rp386
sg38
g5
sg39
I0
sg40
I0
sg41
I0
sg42
I0
sg43
F0.09054055073158887
sg44
I0
sg45
I0
sg46
I0
sg47
F0.25
sg48
I0
ssS'SHELBY REX'
p387
(dp388
g3
I0
sg4
g5
sg6
I0
sg7
I01
sg8
I-1
sg9
S'rex.shelby@enron.com'
p389
sg11
g5
sg12
g5
sg13
I0
sg14
g5
sg15
I0
sg16
I0
sg17
g18
(g22
S'\t\x00\x00\x00\x00\x00\x00\x00'
p390
tp391
Rp392
sg28
F0.26583924349881793
sg29
g18
(g32
S'\x9e\xd8\x89\x9d\xd8\x89\xdd?'
p393
tp394
Rp395
sg38
g5
sg39
I0
sg40
I0
sg41
I0
sg42
I0
sg43
F0.3354949932806342
sg44
I0
sg45
I0
sg46
I0
sg47
F0.358974358974359
sg48
I0
ssS'LEMAISTRE CHARLES'
p396
(dp397
g3
g5
sg4
g5
sg6
g5
sg7
I00
sg8
I-1
sg9
g5
sg11
g5
sg12
g5
sg13
g5
sg14
g5
sg15
g5
sg16
g5
sg17
g51
sg28
g51
sg29
g51
sg38
I0
sg39
g5
sg40
I0
sg41
g5
sg42
g5
sg43
g51
sg44
g5
sg45
g5
sg46
I0
sg47
g51
sg48
I0
ssS'DEFFNER JOSEPH M'
p398
(dp399
g3
I0
sg4
g5
sg6
I0
sg7
I00
sg8
g5
sg9
S'joseph.deffner@enron.com'
p400
sg11
I0
sg12
g5
sg13
I0
sg14
g5
sg15
I0
sg16
I0
sg17
g18
(g22
S'\x01\x00\x00\x00\x00\x00\x00\x00'
p401
tp402
Rp403
sg28
F0.7410677036772156
sg29
g18
(g32
S'\xd0\xba\xc1\x14\xf9\xac\x9b?'
p404
tp405
Rp406
sg38
g5
sg39
I0
sg40
I0
sg41
I0
sg42
I0
sg43
F0.1088105138844269
sg44
I0
sg45
I0
sg46
I0
sg47
F0.05405405405405406
sg48
I0
ssS'KISHKILL JOSEPH G'
p407
(dp408
g3
g5
sg4
g5
sg6
I0
sg7
I00
sg8
I-1
sg9
S'joe.kishkill@enron.com'
p409
sg11
g5
sg12
g5
sg13
g5
sg14
g5
sg15
g5
sg16
I0
sg17
g51
sg28
g51
sg29
g51
sg38
g5
sg39
g5
sg40
I0
sg41
g5
sg42
g5
sg43
g51
sg44
I0
sg45
I0
sg46
I0
sg47
g51
sg48
g5
ssS'WHALLEY LAWRENCE G'
p410
(dp411
g3
I0
sg4
g5
sg6
I0
sg7
I00
sg8
g5
sg9
S'greg.whalley@enron.com'
p412
sg11
I0
sg12
g5
sg13
I0
sg14
g5
sg15
I0
sg16
I0
sg17
g18
(g22
S'\x07\x00\x00\x00\x00\x00\x00\x00'
p413
tp414
Rp415
sg28
F0.14218273340096785
sg29
g18
(g32
S'\xad&!\x8a\xbf\xc8\x99?'
p416
tp417
Rp418
sg38
g5
sg39
I0
sg40
I0
sg41
I0
sg42
I0
sg43
F0.053883853763674404
sg44
I0
sg45
I0
sg46
I0
sg47
F0.04316546762589928
sg48
I0
ssS'MCCONNELL MICHAEL S'
p419
(dp420
g3
I0
sg4
g5
sg6
I0
sg7
I00
sg8
g5
sg9
S'mike.mcconnell@enron.com'
p421
sg11
I0
sg12
g5
sg13
I0
sg14
g5
sg15
I0
sg16
I0
sg17
g18
(g22
S'\x13\x00\x00\x00\x00\x00\x00\x00'
p422
tp423
Rp424
sg28
F0.1271546627637205
sg29
g18
(g32
S'\xce\xe3t\n\xd8a\x8c?'
p425
tp426
Rp427
sg38
g5
sg39
I0
sg40
I0
sg41
I0
sg42
I0
sg43
F0.10511029673393986
sg44
I0
sg45
I0
sg46
I0
sg47
F0.07075127644055434
sg48
I0
ssS'PIRO JIM'
p428
(dp429
g3
I0
sg4
g5
sg6
g5
sg7
I00
sg8
g5
sg9
S'jim.piro@enron.com'
p430
sg11
g5
sg12
g5
sg13
I0
sg14
g5
sg15
I0
sg16
g5
sg17
g18
(g22
S'\x01\x00\x00\x00\x00\x00\x00\x00'
p431
tp432
Rp433
sg28
F0.0
sg29
g18
(g32
S'\x00\x00\x00\x00\x00\x00\xc0?'
p434
tp435
Rp436
sg38
g5
sg39
g5
sg40
I0
sg41
I0
sg42
I0
sg43
g51
sg44
I0
sg45
g5
sg46
g5
sg47
F0.0625
sg48
g5
ssS'DELAINEY DAVID W'
p437
(dp438
g3
I0
sg4
g5
sg6
I0
sg7
I01
sg8
g5
sg9
S'david.delainey@enron.com'
p439
sg11
I0
sg12
g5
sg13
I0
sg14
g5
sg15
I0
sg16
I0
sg17
g18
(g22
S'\xff\x00\x00\x00\x00\x00\x00\x00'
p440
tp441
Rp442
sg28
F0.0981798295395918
sg29
g18
(g32
S'E\x15UTQE\xc5?'
p443
tp444
Rp445
sg38
g5
sg39
I0
sg40
I0
sg41
I0
sg42
I1
sg43
F0.03855363954335461
sg44
I0
sg45
I0
sg46
I0
sg47
F0.198435972629521
sg48
I0
ssS'SULLIVAN-SHAKLOVITZ COLLEEN'
p446
(dp447
g3
g5
sg4
I0
sg6
g5
sg7
I00
sg8
g5
sg9
g5
sg11
I0
sg12
g5
sg13
g5
sg14
g5
sg15
g5
sg16
I0
sg17
g51
sg28
g51
sg29
g51
sg38
g5
sg39
I0
sg40
I0
sg41
g5
sg42
g5
sg43
F0.5155825939014402
sg44
g5
sg45
I0
sg46
I0
sg47
g51
sg48
I0
ssS'WROBEL BRUCE'
p448
(dp449
g3
g5
sg4
g5
sg6
g5
sg7
I00
sg8
g5
sg9
g5
sg11
g5
sg12
g5
sg13
g5
sg14
g5
sg15
g5
sg16
g5
sg17
g51
sg28
g51
sg29
g51
sg38
g5
sg39
g5
sg40
I0
sg41
g5
sg42
g5
sg43
g51
sg44
g5
sg45
g5
sg46
g5
sg47
g51
sg48
I0
ssS'LINDHOLM TOD A'
p450
(dp451
g3
g5
sg4
I0
sg6
I0
sg7
I00
sg8
g5
sg9
S'tod.lindholm@enron.com'
p452
sg11
I0
sg12
g5
sg13
g5
sg14
g5
sg15
g5
sg16
I0
sg17
g51
sg28
g51
sg29
g51
sg38
g5
sg39
I0
sg40
I0
sg41
g5
sg42
g5
sg43
F0.3744743284027819
sg44
I0
sg45
I0
sg46
I0
sg47
g51
sg48
I0
ssS'MEYER JEROME J'
p453
(dp454
g3
g5
sg4
g5
sg6
I0
sg7
I00
sg8
I-1
sg9
g5
sg11
g5
sg12
g5
sg13
g5
sg14
g5
sg15
g5
sg16
g5
sg17
g51
sg28
g51
sg29
g51
sg38
I0
sg39
g5
sg40
g5
sg41
g5
sg42
g5
sg43
g51
sg44
g5
sg45
g5
sg46
I0
sg47
g51
sg48
g5
ssS'LAY KENNETH L'
p455
(dp456
g3
I0
sg4
I0
sg6
I0
sg7
I01
sg8
I-1
sg9
S'kenneth.lay@enron.com'
p457
sg11
I0
sg12
g5
sg13
I0
sg14
I1
sg15
I0
sg16
I1
sg17
g18
(g22
S'\x12\x00\x00\x00\x00\x00\x00\x00'
p458
tp459
Rp460
sg28
F0.1324434474757383
sg29
g18
(g32
S'\x00\x00\x00\x00\x00\x00\xf0?'
p461
tp462
Rp463
sg38
g5
sg39
I0
sg40
I0
sg41
I0
sg42
I0
sg43
F0.048520653565788704
sg44
I0
sg45
I0
sg46
I1
sg47
F0.4444444444444444
sg48
I1
ssS'BUTTS ROBERT H'
p464
(dp465
g3
g5
sg4
g5
sg6
I0
sg7
I00
sg8
I-1
sg9
S'bob.butts@enron.com'
p466
sg11
I0
sg12
g5
sg13
g5
sg14
g5
sg15
g5
sg16
I0
sg17
g51
sg28
g51
sg29
g51
sg38
g5
sg39
I0
sg40
I0
sg41
g5
sg42
g5
sg43
F0.11044266367424876
sg44
I0
sg45
I0
sg46
I0
sg47
g51
sg48
g5
ssS'OLSON CINDY K'
p467
(dp468
g3
I0
sg4
I0
sg6
I0
sg7
I00
sg8
g5
sg9
S'cindy.olson@enron.com'
p469
sg11
I0
sg12
g5
sg13
I0
sg14
g5
sg15
I0
sg16
I0
sg17
g18
(g22
S'\x01\x00\x00\x00\x00\x00\x00\x00'
p470
tp471
Rp472
sg28
F0.07772067280046004
sg29
g18
(g32
S'\x14;\xb1\x13;\xb1\xa3?'
p473
tp474
Rp475
sg38
g5
sg39
I0
sg40
I0
sg41
I0
sg42
I0
sg43
F0.13897524769648678
sg44
I0
sg45
I0
sg46
I0
sg47
F0.28846153846153844
sg48
I0
ssS'MCDONALD REBECCA'
p476
(dp477
g3
I0
sg4
g5
sg6
g5
sg7
I00
sg8
g5
sg9
S'rebecca.mcdonald@enron.com'
p478
sg11
g5
sg12
g5
sg13
I0
sg14
g5
sg15
I0
sg16
g5
sg17
g18
(g22
S'\x00\x00\x00\x00\x00\x00\x00\x00'
p479
tp480
Rp481
sg28
F0.2779166071683564
sg29
g18
(g32
S'\x00\x00\x00\x00\x00\x00\x00\x00'
p482
tp483
Rp484
sg38
g5
sg39
g5
sg40
I0
sg41
I0
sg42
I0
sg43
g51
sg44
I0
sg45
g5
sg46
g5
sg47
F0.07692307692307693
sg48
I0
ssS'CUMBERLAND MICHAEL S'
p485
(dp486
g3
g5
sg4
g5
sg6
I0
sg7
I00
sg8
g5
sg9
g5
sg11
I0
sg12
g5
sg13
g5
sg14
g5
sg15
g5
sg16
I0
sg17
g51
sg28
g51
sg29
g51
sg38
g5
sg39
I0
sg40
I0
sg41
g5
sg42
g5
sg43
F0.18019845884445007
sg44
I0
sg45
I0
sg46
I0
sg47
g51
sg48
g5
ssS'GAHN ROBERT S'
p487
(dp488
g3
g5
sg4
I0
sg6
I0
sg7
I00
sg8
I-1
sg9
g5
sg11
g5
sg12
g5
sg13
g5
sg14
g5
sg15
g5
sg16
I0
sg17
g51
sg28
g51
sg29
g51
sg38
g5
sg39
I0
sg40
I0
sg41
g5
sg42
g5
sg43
F0.11927783163462706
sg44
I0
sg45
I0
sg46
I0
sg47
g51
sg48
I0
ssS'MCCLELLAN GEORGE'
p489
(dp490
g3
I0
sg4
g5
sg6
I1
sg7
I00
sg8
I-1
sg9
S'george.mcclellan@enron.com'
p491
sg11
g5
sg12
g5
sg13
I0
sg14
g5
sg15
I0
sg16
I0
sg17
g18
(g22
S'\x01\x00\x00\x00\x00\x00\x00\x00'
p492
tp493
Rp494
sg28
F0.13718768299824322
sg29
g18
(g32
S'9\x05/\xa7\xe0\xe5\xa4?'
p495
tp496
Rp497
sg38
g5
sg39
I0
sg40
I0
sg41
I0
sg42
I0
sg43
F0.09270316591981909
sg44
I0
sg45
I0
sg46
I0
sg47
F0.0
sg48
I0
ssS'HERMANN ROBERT J'
p498
(dp499
g3
g5
sg4
g5
sg6
I0
sg7
I00
sg8
I-1
sg9
S'robert.hermann@enron.com'
p500
sg11
I0
sg12
g5
sg13
g5
sg14
g5
sg15
g5
sg16
I0
sg17
g51
sg28
g51
sg29
g51
sg38
g5
sg39
I0
sg40
I0
sg41
g5
sg42
g5
sg43
F0.11885042284493876
sg44
I0
sg45
I0
sg46
I0
sg47
g51
sg48
I0
ssS'SCRIMSHAW MATTHEW'
p501
(dp502
g3
g5
sg4
g5
sg6
g5
sg7
I00
sg8
g5
sg9
S'matthew.scrimshaw@enron.com'
p503
sg11
g5
sg12
g5
sg13
g5
sg14
g5
sg15
g5
sg16
g5
sg17
g51
sg28
g51
sg29
g51
sg38
g5
sg39
g5
sg40
I0
sg41
g5
sg42
g5
sg43
g51
sg44
g5
sg45
g5
sg46
g5
sg47
g51
sg48
I0
ssS'GATHMANN WILLIAM D'
p504
(dp505
g3
g5
sg4
g5
sg6
g5
sg7
I00
sg8
g5
sg9
g5
sg11
g5
sg12
I-1
sg13
g5
sg14
g5
sg15
g5
sg16
g5
sg17
g51
sg28
g51
sg29
g51
sg38
g5
sg39
g5
sg40
I0
sg41
g5
sg42
g5
sg43
g51
sg44
I0
sg45
g5
sg46
g5
sg47
g51
sg48
I0
ssS'HAEDICKE MARK E'
p506
(dp507
g3
I0
sg4
I0
sg6
I0
sg7
I00
sg8
I-1
sg9
S'mark.haedicke@enron.com'
p508
sg11
I0
sg12
I-1
sg13
I0
sg14
g5
sg15
I0
sg16
I0
sg17
g18
(g22
S'\x0c\x00\x00\x00\x00\x00\x00\x00'
p509
tp510
Rp511
sg28
F0.20658306045440314
sg29
g18
(g32
S'\x97\xees\r\xb2R\x89?'
p512
tp513
Rp514
sg38
g5
sg39
I0
sg40
I0
sg41
I0
sg42
I0
sg43
F0.10304306315731698
sg44
I0
sg45
I0
sg46
I0
sg47
F0.03142709943328181
sg48
I0
ssS'BOWEN JR RAYMOND M'
p515
(dp516
g3
I0
sg4
g5
sg6
I0
sg7
I01
sg8
I-1
sg9
S'raymond.bowen@enron.com'
p517
sg11
I0
sg12
g5
sg13
I0
sg14
g5
sg15
I0
sg16
I0
sg17
g18
(g22
S'\x0b\x00\x00\x00\x00\x00\x00\x00'
p518
tp519
Rp520
sg28
F0.3466894166685752
sg29
g18
(g32
S'/\xa1\xbd\x84\xf6\x12\xea?'
p521
tp522
Rp523
sg38
g5
sg39
I0
sg40
I0
sg41
I0
sg42
I0
sg43
F0.06536552796920303
sg44
I0
sg45
I0
sg46
I0
sg47
F0.5555555555555556
sg48
g5
ssS'GILLIS JOHN'
p524
(dp525
g3
g5
sg4
g5
sg6
g5
sg7
I00
sg8
g5
sg9
g5
sg11
g5
sg12
g5
sg13
g5
sg14
g5
sg15
g5
sg16
g5
sg17
g51
sg28
g51
sg29
g51
sg38
g5
sg39
g5
sg40
I0
sg41
g5
sg42
g5
sg43
g51
sg44
I0
sg45
g5
sg46
g5
sg47
g51
sg48
I0
ssS'FITZGERALD JAY L'
p526
(dp527
g3
I0
sg4
g5
sg6
I0
sg7
I00
sg8
g5
sg9
S'jay.fitzgerald@enron.com'
p528
sg11
I0
sg12
g5
sg13
I0
sg14
g5
sg15
I0
sg16
I0
sg17
g18
(g22
S'\x00\x00\x00\x00\x00\x00\x00\x00'
p529
tp530
Rp531
sg28
F0.004915666484815421
sg29
g18
(g32
S'\x00\x00\x00\x00\x00\x00\x00\x00'
p532
tp533
Rp534
sg38
g5
sg39
I0
sg40
I0
sg41
I0
sg42
I0
sg43
F0.18023013262263407
sg44
I0
sg45
I0
sg46
I0
sg47
F0.5
sg48
I0
ssS'MORAN MICHAEL P'
p535
(dp536
g3
I0
sg4
g5
sg6
g5
sg7
I00
sg8
g5
sg9
S'michael.moran@enron.com'
p537
sg11
g5
sg12
g5
sg13
I0
sg14
g5
sg15
I0
sg16
g5
sg17
g18
(g22
S'\x00\x00\x00\x00\x00\x00\x00\x00'
p538
tp539
Rp540
sg28
F0.0
sg29
g18
(g32
S'\x00\x00\x00\x00\x00\x00\x00\x00'
p541
tp542
Rp543
sg38
g5
sg39
g5
sg40
I0
sg41
I0
sg42
I0
sg43
g51
sg44
I0
sg45
g5
sg46
g5
sg47
F0.0
sg48
I0
ssS'REDMOND BRIAN L'
p544
(dp545
g3
I0
sg4
g5
sg6
I0
sg7
I00
sg8
g5
sg9
S'brian.redmond@enron.com'
p546
sg11
g5
sg12
g5
sg13
I0
sg14
g5
sg15
I0
sg16
g5
sg17
g18
(g22
S'\x04\x00\x00\x00\x00\x00\x00\x00'
p547
tp548
Rp549
sg28
F0.5617097673707934
sg29
g18
(g32
S'\x13\xb0\x88\x12\xb0\x88\xa2?'
p550
tp551
Rp552
sg38
g5
sg39
g5
sg40
I0
sg41
I0
sg42
I0
sg43
g51
sg44
I0
sg45
I0
sg46
I0
sg47
F0.22171945701357465
sg48
I0
ssS'BAZELIDES PHILIP J'
p553
(dp554
g3
g5
sg4
I0
sg6
g5
sg7
I00
sg8
g5
sg9
g5
sg11
I0
sg12
g5
sg13
g5
sg14
g5
sg15
g5
sg16
I0
sg17
g51
sg28
g51
sg29
g51
sg38
g5
sg39
g5
sg40
I0
sg41
g5
sg42
g5
sg43
g51
sg44
g5
sg45
I0
sg46
I0
sg47
g51
sg48
I0
ssS'BELDEN TIMOTHY N'
p555
(dp556
g3
I0
sg4
I0
sg6
I0
sg7
I01
sg8
I-1
sg9
S'tim.belden@enron.com'
p557
sg11
g5
sg12
g5
sg13
I1
sg14
g5
sg15
I0
sg16
I0
sg17
g18
(g22
S'}\x00\x00\x00\x00\x00\x00\x00'
p558
tp559
Rp560
sg28
F0.1312780069067062
sg29
g18
(g32
S'\xe44_\xabg\x87\xe0?'
p561
tp562
Rp563
sg38
g5
sg39
I0
sg40
I0
sg41
I0
sg42
I0
sg43
F0.012910777426051354
sg44
I0
sg45
I0
sg46
I0
sg47
F0.2231404958677686
sg48
I0
ssS'DURAN WILLIAM D'
p564
(dp565
g3
I0
sg4
g5
sg6
I0
sg7
I00
sg8
g5
sg9
S'w.duran@enron.com'
p566
sg11
I0
sg12
g5
sg13
I0
sg14
g5
sg15
I0
sg16
I0
sg17
g18
(g22
S'\x00\x00\x00\x00\x00\x00\x00\x00'
p567
tp568
Rp569
sg28
F0.5395052720768216
sg29
g18
(g32
S'\x00\x00\x00\x00\x00\x00\x00\x00'
p570
tp571
Rp572
sg38
g5
sg39
I0
sg40
I0
sg41
I0
sg42
I0
sg43
F0.0889788223085961
sg44
I0
sg45
I0
sg46
I0
sg47
F0.25
sg48
I0
ssS'THORN TERENCE H'
p573
(dp574
g3
I0
sg4
I0
sg6
I0
sg7
I00
sg8
g5
sg9
S'terence.thorn@enron.com'
p575
sg11
I0
sg12
g5
sg13
I0
sg14
g5
sg15
I0
sg16
I0
sg17
g18
(g22
S'\x00\x00\x00\x00\x00\x00\x00\x00'
p576
tp577
Rp578
sg28
F0.0
sg29
g18
(g32
S'\x00\x00\x00\x00\x00\x00\x00\x00'
p579
tp580
Rp581
sg38
g5
sg39
g5
sg40
I0
sg41
I0
sg42
I0
sg43
g51
sg44
I0
sg45
I0
sg46
I0
sg47
F0.0
sg48
I0
ssS'FASTOW ANDREW S'
p582
(dp583
g3
g5
sg4
g5
sg6
I0
sg7
I01
sg8
I-1
sg9
S'andrew.fastow@enron.com'
p584
sg11
I0
sg12
g5
sg13
g5
sg14
g5
sg15
g5
sg16
I0
sg17
g51
sg28
g51
sg29
g51
sg38
g5
sg39
I0
sg40
I0
sg41
g5
sg42
g5
sg43
F0.10737362075488707
sg44
I0
sg45
I0
sg46
I0
sg47
g51
sg48
g5
ssS'FOY JOE'
p585
(dp586
g3
I0
sg4
I0
sg6
g5
sg7
I00
sg8
g5
sg9
S'tracy.foy@enron.com'
p587
sg11
g5
sg12
g5
sg13
I0
sg14
g5
sg15
I0
sg16
g5
sg17
g18
(g22
S'\x00\x00\x00\x00\x00\x00\x00\x00'
p588
tp589
Rp590
sg28
F0.0
sg29
g18
(g32
S'\x00\x00\x00\x00\x00\x00\x00\x00'
p591
tp592
Rp593
sg38
g5
sg39
g5
sg40
I0
sg41
I0
sg42
I0
sg43
g51
sg44
g5
sg45
g5
sg46
I0
sg47
F0.0
sg48
I0
ssS'CALGER CHRISTOPHER F'
p594
(dp595
g3
I0
sg4
g5
sg6
I0
sg7
I01
sg8
I-1
sg9
S'christopher.calger@enron.com'
p596
sg11
I0
sg12
g5
sg13
I0
sg14
g5
sg15
I0
sg16
I0
sg17
g18
(g22
S'\x1d\x00\x00\x00\x00\x00\x00\x00'
p597
tp598
Rp599
sg28
F0.35242944654644326
sg29
g18
(g32
S'r\x1c\xc7q\x1c\xc7\xd9?'
p600
tp601
Rp602
sg38
g5
sg39
I0
sg40
I0
sg41
I0
sg42
I0
sg43
F0.060861544865906794
sg44
I0
sg45
I0
sg46
I0
sg47
F0.1736111111111111
sg48
g5
ssS'RICE KENNETH D'
p603
(dp604
g3
I0
sg4
g5
sg6
I0
sg7
I01
sg8
I-1
sg9
S'ken.rice@enron.com'
p605
sg11
I0
sg12
g5
sg13
I0
sg14
g5
sg15
I0
sg16
I0
sg17
g18
(g22
S'\x06\x00\x00\x00\x00\x00\x00\x00'
p606
tp607
Rp608
sg28
F0.2135300340895733
sg29
g18
(g32
S'UUUUUU\xe5?'
p609
tp610
Rp611
sg38
g5
sg39
I0
sg40
I0
sg41
I0
sg42
I0
sg43
F0.07613217920118731
sg44
I0
sg45
I0
sg46
I0
sg47
F0.2222222222222222
sg48
I0
ssS'KAMINSKI WINCENTY J'
p612
(dp613
g3
I0
sg4
g5
sg6
I0
sg7
I00
sg8
g5
sg9
S'vince.kaminski@enron.com'
p614
sg11
I0
sg12
g5
sg13
I0
sg14
g5
sg15
I1
sg16
I0
sg17
g18
(g22
S'D\x00\x00\x00\x00\x00\x00\x00'
p615
tp616
Rp617
sg28
F0.040947171048681695
sg29
g18
(g32
S'a\xd6\x88\x10\xa3b\x83?'
p618
tp619
Rp620
sg38
g5
sg39
I0
sg40
I0
sg41
I0
sg42
I0
sg43
F0.21783720130495965
sg44
I0
sg45
I0
sg46
I0
sg47
F0.011901447661469933
sg48
I0
ssS'LOCKHART EUGENE E'
p621
(dp622
g3
g5
sg4
g5
sg6
g5
sg7
I00
sg8
g5
sg9
g5
sg11
g5
sg12
g5
sg13
g5
sg14
g5
sg15
g5
sg16
g5
sg17
g51
sg28
g51
sg29
g51
sg38
g5
sg39
g5
sg40
g5
sg41
g5
sg42
g5
sg43
g51
sg44
g5
sg45
g5
sg46
g5
sg47
g51
sg48
g5
ssS'COX DAVID'
p623
(dp624
g3
I0
sg4
g5
sg6
I0
sg7
I00
sg8
I-1
sg9
S'chip.cox@enron.com'
p625
sg11
g5
sg12
g5
sg13
I0
sg14
g5
sg15
I0
sg16
I0
sg17
g18
(g22
S'\x00\x00\x00\x00\x00\x00\x00\x00'
p626
tp627
Rp628
sg28
F0.0
sg29
g18
(g32
S'\x00\x00\x00\x00\x00\x00\x00\x00'
p629
tp630
Rp631
sg38
g5
sg39
I0
sg40
I0
sg41
I0
sg42
I0
sg43
F0.12443360497368813
sg44
I0
sg45
I0
sg46
I0
sg47
F0.12121212121212122
sg48
I0
ssS'OVERDYKE JR JERE C'
p632
(dp633
g3
g5
sg4
g5
sg6
I0
sg7
I00
sg8
g5
sg9
S'jere.overdyke@enron.com'
p634
sg11
I0
sg12
g5
sg13
g5
sg14
g5
sg15
g5
sg16
I0
sg17
g51
sg28
g51
sg29
g51
sg38
g5
sg39
g5
sg40
I0
sg41
g5
sg42
g5
sg43
g51
sg44
I0
sg45
I0
sg46
I0
sg47
g51
sg48
I0
ssS'PEREIRA PAULO V. FERRAZ'
p635
(dp636
g3
g5
sg4
g5
sg6
I0
sg7
I00
sg8
I-1
sg9
g5
sg11
g5
sg12
g5
sg13
g5
sg14
g5
sg15
g5
sg16
g5
sg17
g51
sg28
g51
sg29
g51
sg38
I0
sg39
g5
sg40
g5
sg41
g5
sg42
g5
sg43
g51
sg44
g5
sg45
g5
sg46
I0
sg47
g51
sg48
g5
ssS'STABLER FRANK'
p637
(dp638
g3
g5
sg4
g5
sg6
I0
sg7
I00
sg8
g5
sg9
S'frank.stabler@enron.com'
p639
sg11
g5
sg12
g5
sg13
g5
sg14
g5
sg15
g5
sg16
I0
sg17
g51
sg28
g51
sg29
g51
sg38
g5
sg39
I0
sg40
I0
sg41
g5
sg42
g5
sg43
F0.15171866445251875
sg44
I0
sg45
I0
sg46
I0
sg47
g51
sg48
g5
ssS'SKILLING JEFFREY K'
p640
(dp641
g3
I0
sg4
g5
sg6
I0
sg7
I01
sg8
g5
sg9
S'jeff.skilling@enron.com'
p642
sg11
I0
sg12
g5
sg13
I0
sg14
g5
sg15
I0
sg16
I0
sg17
g18
(g22
S'\x1d\x00\x00\x00\x00\x00\x00\x00'
p643
tp644
Rp645
sg28
F0.11163320017129214
sg29
g18
(g32
S'\xf7\x12\xdaKh/\xe1?'
p646
tp647
Rp648
sg38
g5
sg39
I0
sg40
I0
sg41
I0
sg42
I0
sg43
F0.06285310606643349
sg44
I0
sg45
I1
sg46
I0
sg47
F0.2777777777777778
sg48
I0
ssS'BLAKE JR. NORMAN P'
p649
(dp650
g3
g5
sg4
g5
sg6
I0
sg7
I00
sg8
I-1
sg9
g5
sg11
g5
sg12
g5
sg13
g5
sg14
g5
sg15
g5
sg16
g5
sg17
g51
sg28
g51
sg29
g51
sg38
I0
sg39
g5
sg40
g5
sg41
g5
sg42
g5
sg43
g51
sg44
g5
sg45
g5
sg46
I0
sg47
g51
sg48
g5
ssS'SHERRICK JEFFREY B'
p651
(dp652
g3
I0
sg4
g5
sg6
g5
sg7
I00
sg8
g5
sg9
S'jeffrey.sherrick@enron.com'
p653
sg11
g5
sg12
g5
sg13
I0
sg14
g5
sg15
I0
sg16
g5
sg17
g18
(g22
S'\x01\x00\x00\x00\x00\x00\x00\x00'
p654
tp655
Rp656
sg28
F0.29272673631599044
sg29
g18
(g32
S'{\x14\xaeG\xe1z\xb4?'
p657
tp658
Rp659
sg38
g5
sg39
g5
sg40
I0
sg41
I0
sg42
I0
sg43
g51
sg44
I0
sg45
g5
sg46
g5
sg47
F0.72
sg48
I0
ssS'PRENTICE JAMES'
p660
(dp661
g3
g5
sg4
I0
sg6
g5
sg7
I00
sg8
g5
sg9
S'james.prentice@enron.com'
p662
sg11
g5
sg12
g5
sg13
g5
sg14
g5
sg15
g5
sg16
g5
sg17
g51
sg28
g51
sg29
g51
sg38
g5
sg39
g5
sg40
I0
sg41
g5
sg42
g5
sg43
g51
sg44
I0
sg45
g5
sg46
I0
sg47
g51
sg48
I0
ssS'GRAY RODNEY'
p663
(dp664
g3
g5
sg4
I0
sg6
g5
sg7
I00
sg8
g5
sg9
g5
sg11
I0
sg12
g5
sg13
g5
sg14
g5
sg15
g5
sg16
I0
sg17
g51
sg28
g51
sg29
g51
sg38
g5
sg39
g5
sg40
g5
sg41
g5
sg42
g5
sg43
g51
sg44
g5
sg45
I0
sg46
I0
sg47
g51
sg48
g5
ssS'PICKERING MARK R'
p665
(dp666
g3
I0
sg4
g5
sg6
I0
sg7
I00
sg8
g5
sg9
S'mark.pickering@enron.com'
p667
sg11
g5
sg12
g5
sg13
I0
sg14
I0
sg15
I0
sg16
g5
sg17
g18
(g22
S'\x02\x00\x00\x00\x00\x00\x00\x00'
p668
tp669
Rp670
sg28
F0.03586575368431029
sg29
g18
(g32
S'g\xb7\xf0\xab1\x91\xae?'
p671
tp672
Rp673
sg38
g5
sg39
I0
sg40
I0
sg41
I0
sg42
I0
sg43
F0.6915832213439034
sg44
g5
sg45
I0
sg46
I0
sg47
F0.0
sg48
I0
ssS'THE TRAVEL AGENCY IN THE PARK'
p674
(dp675
g3
g5
sg4
g5
sg6
g5
sg7
I00
sg8
g5
sg9
g5
sg11
g5
sg12
g5
sg13
g5
sg14
g5
sg15
g5
sg16
I0
sg17
g51
sg28
g51
sg29
g51
sg38
g5
sg39
g5
sg40
g5
sg41
g5
sg42
g5
sg43
g51
sg44
g5
sg45
g5
sg46
I0
sg47
g51
sg48
g5
ssS'NOLES JAMES L'
p676
(dp677
g3
g5
sg4
I0
sg6
g5
sg7
I00
sg8
g5
sg9
g5
sg11
g5
sg12
I-1
sg13
g5
sg14
g5
sg15
g5
sg16
g5
sg17
g51
sg28
g51
sg29
g51
sg38
g5
sg39
g5
sg40
I0
sg41
g5
sg42
g5
sg43
g51
sg44
I0
sg45
g5
sg46
I0
sg47
g51
sg48
g5
ssS'KEAN STEVEN J'
p678
(dp679
g3
I0
sg4
g5
sg6
I0
sg7
I00
sg8
g5
sg9
S'steven.kean@enron.com'
p680
sg11
I0
sg12
g5
sg13
I0
sg14
g5
sg15
I0
sg16
I0
sg17
g18
(g22
S' \x00\x00\x00\x00\x00\x00\x00'
p681
tp682
Rp683
sg28
F0.05050564028306514
sg29
g18
(g32
S'\x14\xe2ybhd\x83?'
p684
tp685
Rp686
sg38
g5
sg39
I0
sg40
I0
sg41
I0
sg42
I0
sg43
F0.12806912123364841
sg44
I0
sg45
I0
sg46
I0
sg47
F0.05725699067909454
sg48
I0
ssS'FOWLER PEGGY'
p687
(dp688
g3
I0
sg4
g5
sg6
g5
sg7
I00
sg8
g5
sg9
S'kulvinder.fowler@enron.com'
p689
sg11
g5
sg12
g5
sg13
I0
sg14
g5
sg15
I0
sg16
g5
sg17
g18
(g22
S'\x00\x00\x00\x00\x00\x00\x00\x00'
p690
tp691
Rp692
sg28
F0.0
sg29
g18
(g32
S'\x00\x00\x00\x00\x00\x00\x00\x00'
p693
tp694
Rp695
sg38
g5
sg39
g5
sg40
I0
sg41
I0
sg42
I0
sg43
g51
sg44
I0
sg45
g5
sg46
g5
sg47
F0.0
sg48
I0
ssS'WASAFF GEORGE'
p696
(dp697
g3
I0
sg4
I0
sg6
g5
sg7
I00
sg8
I-1
sg9
S'george.wasaff@enron.com'
p698
sg11
I0
sg12
g5
sg13
I0
sg14
g5
sg15
I0
sg16
I0
sg17
g18
(g22
S'\x02\x00\x00\x00\x00\x00\x00\x00'
p699
tp700
Rp701
sg28
F0.2530585106382979
sg29
g18
(g32
S'\x11\x11\x11\x11\x11\x11\xc1?'
p702
tp703
Rp704
sg38
g5
sg39
I0
sg40
I0
sg41
I0
sg42
I0
sg43
F0.2533863271608913
sg44
I0
sg45
I0
sg46
I0
sg47
F0.23333333333333334
sg48
I0
ssS'WHITE JR THOMAS E'
p705
(dp706
g3
g5
sg4
g5
sg6
I0
sg7
I00
sg8
g5
sg9
S'thomas.white@enron.com'
p707
sg11
g5
sg12
g5
sg13
g5
sg14
g5
sg15
g5
sg16
I0
sg17
g51
sg28
g51
sg29
g51
sg38
g5
sg39
I0
sg40
I0
sg41
g5
sg42
g5
sg43
F0.22350636768631094
sg44
I0
sg45
I0
sg46
I0
sg47
g51
sg48
I0
ssS'CHRISTODOULOU DIOMEDES'
p708
(dp709
g3
g5
sg4
g5
sg6
g5
sg7
I00
sg8
g5
sg9
S'diomedes.christodoulou@enron.com'
p710
sg11
g5
sg12
g5
sg13
g5
sg14
g5
sg15
g5
sg16
g5
sg17
g51
sg28
g51
sg29
g51
sg38
g5
sg39
g5
sg40
I0
sg41
g5
sg42
g5
sg43
g51
sg44
I0
sg45
g5
sg46
g5
sg47
g51
sg48
I0
ssS'ALLEN PHILLIP K'
p711
(dp712
g3
I0
sg4
I0
sg6
I0
sg7
I00
sg8
I-1
sg9
S'phillip.allen@enron.com'
p713
sg11
I0
sg12
I-1
sg13
I0
sg14
g5
sg15
I0
sg16
I0
sg17
g18
(g22
S'\r\x00\x00\x00\x00\x00\x00\x00'
p714
tp715
Rp716
sg28
F0.07451757408683667
sg29
g18
(g32
S' \xae\t\xbf>B\x88?'
p717
tp718
Rp719
sg38
g5
sg39
I0
sg40
I0
sg41
I0
sg42
I0
sg43
F0.015321384127307889
sg44
I0
sg45
I0
sg46
I0
sg47
F0.029612756264236904
sg48
I0
ssS'SHARP VICTORIA T'
p720
(dp721
g3
I0
sg4
I0
sg6
I0
sg7
I00
sg8
g5
sg9
S'vicki.sharp@enron.com'
p722
sg11
I0
sg12
g5
sg13
I0
sg14
g5
sg15
I0
sg16
I0
sg17
g18
(g22
S'\x01\x00\x00\x00\x00\x00\x00\x00'
p723
tp724
Rp725
sg28
F0.0352122231871472
sg29
g18
(g32
S'\x1e\x1e\x1e\x1e\x1e\x1e\x8e?'
p726
tp727
Rp728
sg38
g5
sg39
I0
sg40
I0
sg41
I0
sg42
I0
sg43
F0.13099535602080817
sg44
I0
sg45
I0
sg46
I0
sg47
F0.04411764705882353
sg48
I0
ssS'JAEDICKE ROBERT'
p729
(dp730
g3
g5
sg4
g5
sg6
g5
sg7
I00
sg8
I-1
sg9
g5
sg11
g5
sg12
I-1
sg13
g5
sg14
g5
sg15
g5
sg16
g5
sg17
g51
sg28
g51
sg29
g51
sg38
I0
sg39
g5
sg40
I0
sg41
g5
sg42
g5
sg43
g51
sg44
I0
sg45
g5
sg46
I0
sg47
g51
sg48
I0
ssS'WINOKUR JR. HERBERT S'
p731
(dp732
g3
g5
sg4
g5
sg6
I0
sg7
I00
sg8
I-1
sg9
g5
sg11
g5
sg12
g5
sg13
g5
sg14
g5
sg15
g5
sg16
g5
sg17
g51
sg28
g51
sg29
g51
sg38
I0
sg39
g5
sg40
g5
sg41
g5
sg42
g5
sg43
g51
sg44
g5
sg45
g5
sg46
I0
sg47
g51
sg48
g5
ssS'BROWN MICHAEL'
p733
(dp734
g3
I0
sg4
g5
sg6
I0
sg7
I00
sg8
g5
sg9
S'michael.brown@enron.com'
p735
sg11
g5
sg12
g5
sg13
I0
sg14
g5
sg15
I0
sg16
g5
sg17
g18
(g22
S'\x00\x00\x00\x00\x00\x00\x00\x00'
p736
tp737
Rp738
sg28
F0.04025156782451819
sg29
g18
(g32
S'\x00\x00\x00\x00\x00\x00\x00\x00'
p739
tp740
Rp741
sg38
g5
sg39
g5
sg40
g5
sg41
I0
sg42
I0
sg43
g51
sg44
g5
sg45
g5
sg46
I0
sg47
F0.024390243902439025
sg48
g5
ssS'BADUM JAMES P'
p742
(dp743
g3
g5
sg4
I0
sg6
I0
sg7
I00
sg8
g5
sg9
g5
sg11
g5
sg12
g5
sg13
g5
sg14
g5
sg15
g5
sg16
g5
sg17
g51
sg28
g51
sg29
g51
sg38
g5
sg39
g5
sg40
I0
sg41
g5
sg42
g5
sg43
g51
sg44
g5
sg45
g5
sg46
I0
sg47
g51
sg48
I0
ssS'HUGHES JAMES A'
p744
(dp745
g3
I0
sg4
g5
sg6
g5
sg7
I00
sg8
g5
sg9
S'james.hughes@enron.com'
p746
sg11
g5
sg12
g5
sg13
I0
sg14
g5
sg15
I0
sg16
g5
sg17
g18
(g22
S'\x00\x00\x00\x00\x00\x00\x00\x00'
p747
tp748
Rp749
sg28
F0.22397389992010178
sg29
g18
(g32
S'\x00\x00\x00\x00\x00\x00\x00\x00'
p750
tp751
Rp752
sg38
g5
sg39
g5
sg40
I0
sg41
I0
sg42
I0
sg43
g51
sg44
I0
sg45
g5
sg46
g5
sg47
F0.14705882352941177
sg48
I0
ssS'REYNOLDS LAWRENCE'
p753
(dp754
g3
g5
sg4
I0
sg6
I0
sg7
I00
sg8
I-1
sg9
g5
sg11
I0
sg12
I-1
sg13
g5
sg14
g5
sg15
g5
sg16
I0
sg17
g51
sg28
g51
sg29
g51
sg38
g5
sg39
I0
sg40
I0
sg41
g5
sg42
g5
sg43
F0.24198449794799165
sg44
I0
sg45
I0
sg46
I0
sg47
g51
sg48
I0
ssS'DIMICHELE RICHARD G'
p755
(dp756
g3
g5
sg4
g5
sg6
I0
sg7
I00
sg8
g5
sg9
S'richard.dimichele@enron.com'
p757
sg11
I0
sg12
g5
sg13
g5
sg14
g5
sg15
g5
sg16
I0
sg17
g51
sg28
g51
sg29
g51
sg38
g5
sg39
I0
sg40
I0
sg41
g5
sg42
g5
sg43
F0.08323488821418715
sg44
I0
sg45
I0
sg46
I0
sg47
g51
sg48
I0
ssS'BHATNAGAR SANJAY'
p758
(dp759
g3
I0
sg4
g5
sg6
g5
sg7
I00
sg8
g5
sg9
S'sanjay.bhatnagar@enron.com'
p760
sg11
g5
sg12
I0
sg13
I0
sg14
g5
sg15
I0
sg16
I0
sg17
g18
(g22
S'\x00\x00\x00\x00\x00\x00\x00\x00'
p761
tp762
Rp763
sg28
F0.0
sg29
g18
(g32
S'\x00\x00\x00\x00\x00\x00\x00\x00'
p764
tp765
Rp766
sg38
I1
sg39
g5
sS'total_stock_value'
p767
S'NaN'
p768
sg41
I0
sg42
I0
sg43
g51
sg44
I-1
sg45
g5
sg46
I0
sg47
F0.034482758620689655
sg48
I0
ssS'CARTER REBECCA C'
p769
(dp770
g3
I0
sg4
g5
sg6
g5
sg7
I00
sg8
I-1
sg9
S'rebecca.carter@enron.com'
p771
sg11
I0
sg12
I-1
sg13
I0
sg14
g5
sg15
I0
sg16
I0
sg17
g18
(g22
S'\x00\x00\x00\x00\x00\x00\x00\x00'
p772
tp773
Rp774
sg28
F0.4276629841789416
sg29
g18
(g32
S'\x00\x00\x00\x00\x00\x00\x00\x00'
p775
tp776
Rp777
sg38
g5
sg39
I0
sg40
g5
sg41
I0
sg42
I0
sg43
F0.27641600641921904
sg44
I0
sg45
I0
sg46
I0
sg47
F0.4666666666666667
sg48
g5
ssS'BUCHANAN HAROLD G'
p778
(dp779
g3
I0
sg4
g5
sg6
I0
sg7
I00
sg8
g5
sg9
S'john.buchanan@enron.com'
p780
sg11
I0
sg12
g5
sg13
I0
sg14
g5
sg15
I0
sg16
I0
sg17
g18
(g22
S'\x02\x00\x00\x00\x00\x00\x00\x00'
p781
tp782
Rp783
sg28
F0.0
sg29
g18
(g32
S'\xfc\xa9\xf1\xd2Mb\xa0?'
p784
tp785
Rp786
sg38
g5
sg39
I0
sg40
I0
sg41
I0
sg42
I0
sg43
F0.15711270887725506
sg44
I0
sg45
I0
sg46
I0
sg47
F0.0
sg48
I0
ssS'YEAP SOON'
p787
(dp788
g3
g5
sg4
g5
sg6
I0
sg7
I00
sg8
g5
sg9
g5
sg11
g5
sg12
g5
sg13
g5
sg14
g5
sg15
g5
sg16
g5
sg17
g51
sg28
g51
sg29
g51
sg38
g5
sg39
g5
sg40
I0
sg41
g5
sg42
g5
sg43
g51
sg44
g5
sg45
g5
sg46
I0
sg47
g51
sg48
I0
ssS'MURRAY JULIA H'
p789
(dp790
g3
I0
sg4
g5
sg6
I0
sg7
I00
sg8
g5
sg9
S'julia.murray@enron.com'
p791
sg11
I0
sg12
g5
sg13
I0
sg14
g5
sg15
I0
sg16
I0
sg17
g18
(g22
S'\x01\x00\x00\x00\x00\x00\x00\x00'
p792
tp793
Rp794
sg28
F0.023089280167727908
sg29
g18
(g32
S'\x17l\xc1\x16l\xc1\xa6?'
p795
tp796
Rp797
sg38
g5
sg39
I0
sg40
I0
sg41
I0
sg42
I0
sg43
F0.18155726392854396
sg44
I0
sg45
I0
sg46
I0
sg47
F0.044444444444444446
sg48
I0
ssS'GARLAND C KEVIN'
p798
(dp799
g3
I0
sg4
g5
sg6
I0
sg7
I00
sg8
g5
sg9
S'kevin.garland@enron.com'
p800
sg11
I0
sg12
g5
sg13
I0
sg14
g5
sg15
I0
sg16
I0
sg17
g18
(g22
S'\x01\x00\x00\x00\x00\x00\x00\x00'
p801
tp802
Rp803
sg28
F0.22014659472666193
sg29
g18
(g32
S'F\x17]t\xd1E\xa7?'
p804
tp805
Rp806
sg38
g5
sg39
I0
sg40
I0
sg41
I0
sg42
I0
sg43
F0.08643066064314804
sg44
I0
sg45
I0
sg46
I0
sg47
F0.6136363636363636
sg48
I0
ssS'DODSON KEITH'
p807
(dp808
g3
I0
sg4
g5
sg6
I0
sg7
I00
sg8
g5
sg9
S'keith.dodson@enron.com'
p809
sg11
g5
sg12
g5
sg13
I0
sg14
g5
sg15
I0
sg16
I0
sg17
g18
(g22
S'\x01\x00\x00\x00\x00\x00\x00\x00'
p810
tp811
Rp812
sg28
F0.261424081237911
sg29
g18
(g32
S'\x92$I\x92$I\xc2?'
p813
tp814
Rp815
sg38
g5
sg39
I0
sg40
g5
sg41
I0
sg42
I0
sg43
F1.0
sg44
g5
sg45
I0
sg46
I0
sg47
F0.21428571428571427
sg48
g5
ssS'YEAGER F SCOTT'
p816
(dp817
g3
g5
sg4
g5
sg6
I0
sg7
I01
sg8
g5
sg9
S'scott.yeager@enron.com'
p818
sg11
g5
sg12
g5
sg13
g5
sg14
g5
sg15
g5
sg16
I0
sg17
g51
sg28
g51
sg29
g51
sg38
g5
sg39
g5
sg40
I0
sg41
g5
sg42
g5
sg43
g51
sg44
I0
sg45
I0
sg46
I0
sg47
g51
sg48
I0
ssS'HIRKO JOSEPH'
p819
(dp820
g3
g5
sg4
I0
sg6
I0
sg7
I01
sg8
g5
sg9
S'joe.hirko@enron.com'
p821
sg11
g5
sg12
g5
sg13
g5
sg14
g5
sg15
g5
sg16
I0
sg17
g51
sg28
g51
sg29
g51
sg38
g5
sg39
g5
sg40
I0
sg41
g5
sg42
g5
sg43
g51
sg44
g5
sg45
g5
sg46
I0
sg47
g51
sg48
I0
ssS'DIETRICH JANET R'
p822
(dp823
g3
I0
sg4
g5
sg6
I0
sg7
I00
sg8
g5
sg9
S'janet.dietrich@enron.com'
p824
sg11
I0
sg12
g5
sg13
I0
sg14
g5
sg15
I0
sg16
I0
sg17
g18
(g22
S'\x00\x00\x00\x00\x00\x00\x00\x00'
p825
tp826
Rp827
sg28
F0.5456160451341783
sg29
g18
(g32
S'\x00\x00\x00\x00\x00\x00\x00\x00'
p828
tp829
Rp830
sg38
g5
sg39
I0
sg40
I0
sg41
I0
sg42
I0
sg43
F0.13202686539700065
sg44
I0
sg45
I0
sg46
I0
sg47
F0.2222222222222222
sg48
I0
ssS'DERRICK JR. JAMES V'
p831
(dp832
g3
I0
sg4
g5
sg6
I0
sg7
I00
sg8
I-1
sg9
S'james.derrick@enron.com'
p833
sg11
I0
sg12
I-1
sg13
I0
sg14
g5
sg15
I0
sg16
I0
sg17
g18
(g22
S'\x06\x00\x00\x00\x00\x00\x00\x00'
p834
tp835
Rp836
sg28
F0.1350151696957281
sg29
g18
(g32
S'\xa4"\xd91K\t\x8b?'
p837
tp838
Rp839
sg38
g5
sg39
I0
sg40
I0
sg41
I0
sg42
I0
sg43
F0.19494220666687784
sg44
I0
sg45
I0
sg46
I0
sg47
F0.022002200220022004
sg48
I0
ssS'FREVERT MARK A'
p840
(dp841
g3
I0
sg4
I0
sg6
I0
sg7
I00
sg8
I-1
sg9
S'mark.frevert@enron.com'
p842
sg11
I0
sg12
g5
sg13
I0
sg14
I0
sg15
I0
sg16
I0
sg17
g18
(g22
S'\x00\x00\x00\x00\x00\x00\x00\x00'
p843
tp844
Rp845
sg28
F0.3399870066590872
sg29
g18
(g32
S'\x00\x00\x00\x00\x00\x00\x00\x00'
p846
tp847
Rp848
sg38
g5
sg39
I0
sg40
I0
sg41
I0
sg42
I0
sg43
F0.1680186241815722
sg44
I0
sg45
I0
sg46
I0
sg47
F0.2857142857142857
sg48
I0
ssS'PAI LOU L'
p849
(dp850
g3
g5
sg4
g5
sg6
I0
sg7
I00
sg8
g5
sg9
S'lou.pai@enron.com'
p851
sg11
g5
sg12
g5
sg13
g5
sg14
g5
sg15
g5
sg16
I0
sg17
g51
sg28
g51
sg29
g51
sg38
g5
sg39
I0
sg40
I0
sg41
g5
sg42
g5
sg43
F0.0829469735704945
sg44
I0
sg45
I0
sg46
I0
sg47
g51
sg48
I0
ssS'BAY FRANKLIN R'
p852
(dp853
g3
g5
sg4
I0
sg6
I0
sg7
I00
sg8
I-1
sg9
S'frank.bay@enron.com'
p854
sg11
g5
sg12
I-1
sg13
g5
sg14
g5
sg15
g5
sg16
I0
sg17
g51
sg28
g51
sg29
g51
sg38
g5
sg39
I0
sg40
I0
sg41
g5
sg42
g5
sg43
F0.18978215227847586
sg44
I0
sg45
I0
sg46
I0
sg47
g51
sg48
g5
ssS'HAYSLETT RODERICK J'
p855
(dp856
g3
I0
sg4
g5
sg6
g5
sg7
I00
sg8
g5
sg9
S'rod.hayslett@enron.com'
p857
sg11
g5
sg12
g5
sg13
I0
sg14
g5
sg15
I0
sg16
g5
sg17
g18
(g22
S'\x07\x00\x00\x00\x00\x00\x00\x00'
p858
tp859
Rp860
sg28
F0.06079170783033341
sg29
g18
(g32
S'@\xeb\x1d4\x08\x06\x8b?'
p861
tp862
Rp863
sg38
g5
sg39
g5
sg40
I0
sg41
I0
sg42
I0
sg43
g51
sg44
I0
sg45
g5
sg46
g5
sg47
F0.03581526861451461
sg48
g5
ssS'FUGH JOHN L'
p864
(dp865
g3
g5
sg4
I0
sg6
g5
sg7
I00
sg8
g5
sg9
g5
sg11
g5
sg12
g5
sg13
g5
sg14
g5
sg15
g5
sg16
g5
sg17
g51
sg28
g51
sg29
g51
sg38
g5
sg39
g5
sg40
I0
sg41
g5
sg42
g5
sg43
g51
sg44
g5
sg45
g5
sg46
I0
sg47
g51
sg48
I0
ssS'FALLON JAMES B'
p866
(dp867
g3
I0
sg4
g5
sg6
I0
sg7
I00
sg8
g5
sg9
S'jim.fallon@enron.com'
p868
sg11
I0
sg12
g5
sg13
I0
sg14
g5
sg15
I0
sg16
I0
sg17
g18
(g22
S'\x02\x00\x00\x00\x00\x00\x00\x00'
p869
tp870
Rp871
sg28
F0.11011092925986543
sg29
g18
(g32
S'O\x1b\xe8\xb4\x81N\xab?'
p872
tp873
Rp874
sg38
g5
sg39
I0
sg40
I0
sg41
I0
sg42
I0
sg43
F0.03858981099804075
sg44
I0
sg45
I0
sg46
I0
sg47
F0.49333333333333335
sg48
I0
ssS'KOENIG MARK E'
p875
(dp876
g3
I0
sg4
g5
sg6
I0
sg7
I01
sg8
g5
sg9
S'mark.koenig@enron.com'
p877
sg11
I0
sg12
g5
sg13
I0
sg14
g5
sg15
I0
sg16
I0
sg17
g18
(g22
S'\x0b\x00\x00\x00\x00\x00\x00\x00'
p878
tp879
Rp880
sg28
F0.10271962214773522
sg29
g18
(g32
S'\x11\xac\xa3\xcd\xfb\x14\xd7?'
p881
tp882
Rp883
sg38
g5
sg39
I0
sg40
I0
sg41
I0
sg42
I0
sg43
F0.14024515504314422
sg44
I0
sg45
I0
sg46
I0
sg47
F0.2459016393442623
sg48
I0
ssS'SAVAGE FRANK'
p884
(dp885
g3
g5
sg4
g5
sg6
g5
sg7
I00
sg8
I-1
sg9
g5
sg11
g5
sg12
g5
sg13
g5
sg14
g5
sg15
g5
sg16
g5
sg17
g51
sg28
g51
sg29
g51
sg38
I0
sg39
g5
sg40
g5
sg41
g5
sg42
g5
sg43
g51
sg44
g5
sg45
g5
sg46
I0
sg47
g51
sg48
g5
ssS'IZZO LAWRENCE L'
p886
(dp887
g3
I0
sg4
g5
sg6
I0
sg7
I00
sg8
g5
sg9
S'larry.izzo@enron.com'
p888
sg11
I0
sg12
g5
sg13
I0
sg14
g5
sg15
I0
sg16
I0
sg17
g18
(g22
S'\x00\x00\x00\x00\x00\x00\x00\x00'
p889
tp890
Rp891
sg28
F0.2597374742621826
sg29
g18
(g32
S'\x00\x00\x00\x00\x00\x00\x00\x00'
p892
tp893
Rp894
sg38
g5
sg39
g5
sg40
I0
sg41
I0
sg42
I0
sg43
g51
sg44
I0
sg45
I0
sg46
I0
sg47
F0.2631578947368421
sg48
I0
ssS'TILNEY ELIZABETH A'
p895
(dp896
g3
I0
sg4
g5
sg6
g5
sg7
I00
sg8
I-1
sg9
S'elizabeth.tilney@enron.com'
p897
sg11
I0
sg12
g5
sg13
I0
sg14
g5
sg15
I0
sg16
I0
sg17
g18
(g22
S'\x00\x00\x00\x00\x00\x00\x00\x00'
p898
tp899
Rp900
sg28
F0.10002312673450509
sg29
g18
(g32
S'\x00\x00\x00\x00\x00\x00\x00\x00'
p901
tp902
Rp903
sg38
g5
sg39
I0
sg40
I0
sg41
I0
sg42
I0
sg43
F0.2611376316158604
sg44
I0
sg45
I0
sg46
I0
sg47
F0.5789473684210527
sg48
I0
ssS'MARTIN AMANDA K'
p904
(dp905
g3
I0
sg4
I0
sg6
I0
sg7
I00
sg8
g5
sg9
S'a..martin@enron.com'
p906
sg11
I1
sg12
g5
sg13
I0
sg14
g5
sg15
I0
sg16
I0
sg17
g18
(g22
S'\x02\x00\x00\x00\x00\x00\x00\x00'
p907
tp908
Rp909
sg28
F0.0241843039673442
sg29
g18
(g32
S'\x1d\x81\xa2\xad\x06\xcf\x91?'
p910
tp911
Rp912
sg38
g5
sg39
g5
sg40
I0
sg41
I0
sg42
I0
sg43
g51
sg44
g5
sg45
I0
sg46
I0
sg47
F0.0
sg48
I0
ssS'BUY RICHARD B'
p913
(dp914
g3
I0
sg4
I0
sg6
g5
sg7
I00
sg8
I-1
sg9
S'rick.buy@enron.com'
p915
sg11
I0
sg12
g5
sg13
I0
sg14
g5
sg15
I0
sg16
I0
sg17
g18
(g22
S'\x07\x00\x00\x00\x00\x00\x00\x00'
p916
tp917
Rp918
sg28
F0.20373714375441626
sg29
g18
(g32
S'T^\xac7\x97:\x8b?'
p919
tp920
Rp921
sg38
g5
sg39
I0
sg40
I0
sg41
I0
sg42
I0
sg43
F0.116329340929007
sg44
I0
sg45
I0
sg46
I0
sg47
F0.06742640075973409
sg48
I0
ssS'GRAMM WENDY L'
p922
(dp923
g3
g5
sg4
g5
sg6
g5
sg7
I00
sg8
g5
sg9
g5
sg11
g5
sg12
g5
sg13
g5
sg14
g5
sg15
g5
sg16
g5
sg17
g51
sg28
g51
sg29
g51
sg38
I0
sg39
g5
sg40
g5
sg41
g5
sg42
g5
sg43
g51
sg44
g5
sg45
g5
sg46
I0
sg47
g51
sg48
g5
ssS'CAUSEY RICHARD A'
p924
(dp925
g3
I0
sg4
g5
sg6
I0
sg7
I01
sg8
I-1
sg9
S'richard.causey@enron.com'
p926
sg11
I0
sg12
g5
sg13
I0
sg14
g5
sg15
I0
sg16
I0
sg17
g18
(g22
S'\x0b\x00\x00\x00\x00\x00\x00\x00'
p927
tp928
Rp929
sg28
F0.14104741127254733
sg29
g18
(g32
S'/\xa7\xe0\xe5\x14\xbc\xdc?'
p930
tp931
Rp932
sg38
g5
sg39
I0
sg40
I0
sg41
I0
sg42
I0
sg43
F0.13150604290439497
sg44
I0
sg45
I0
sg46
I0
sg47
F0.24489795918367346
sg48
g5
ssS'TAYLOR MITCHELL S'
p933
(dp934
g3
I0
sg4
I0
sg6
g5
sg7
I00
sg8
g5
sg9
S'mitchell.taylor@enron.com'
p935
sg11
g5
sg12
g5
sg13
I0
sg14
g5
sg15
I0
sg16
g5
sg17
g18
(g22
S'\x00\x00\x00\x00\x00\x00\x00\x00'
p936
tp937
Rp938
sg28
F0.0
sg29
g18
(g32
S'\x00\x00\x00\x00\x00\x00\x00\x00'
p939
tp940
Rp941
sg38
g5
sg39
I0
sg40
I0
sg41
I0
sg42
I0
sg43
F0.1400054901215519
sg44
I0
sg45
I0
sg46
I0
sg47
F0.0
sg48
I0
ssS'DONAHUE JR JEFFREY M'
p942
(dp943
g3
I0
sg4
g5
sg6
I0
sg7
I00
sg8
I-1
sg9
S'jeff.donahue@enron.com'
p944
sg11
g5
sg12
g5
sg13
I0
sg14
g5
sg15
I0
sg16
I0
sg17
g18
(g22
S'\x00\x00\x00\x00\x00\x00\x00\x00'
p945
tp946
Rp947
sg28
F1.0
sg29
g18
(g32
S'\x00\x00\x00\x00\x00\x00\x00\x00'
p948
tp949
Rp950
sg38
g5
sg39
I0
sg40
I0
sg41
I0
sg42
I0
sg43
F0.11030432844803012
sg44
I0
sg45
I0
sg46
I0
sg47
F0.5
sg48
I0
ssS'GLISAN JR BEN F'
p951
(dp952
g3
I0
sg4
g5
sg6
I0
sg7
I01
sg8
g5
sg9
S'ben.glisan@enron.com'
p953
sg11
I0
sg12
g5
sg13
I0
sg14
g5
sg15
I0
sg16
I0
sg17
g18
(g22
S'\x04\x00\x00\x00\x00\x00\x00\x00'
p954
tp955
Rp956
sg28
F0.27406107577197725
sg29
g18
(g32
S'\x00\x00\x00\x00\x00\x00\xe0?'
p957
tp958
Rp959
sg38
g5
sg39
I0
sg40
I0
sg41
I0
sg42
I0
sg43
F0.1451582859357867
sg44
I0
sg45
I0
sg46
I0
sg47
F0.375
sg48
I0
ss.