(lp0
S'mark.metts@enron.com'
p1
ag1
ag1
ag1
ag1
ag1
ag1
ag1
ag1
ag1
ag1
ag1
ag1
ag1
ag1
ag1
ag1
ag1
ag1
ag1
aS'bill.cordes@enron.com'
p2
ag2
ag2
ag2
ag2
aS'kevin.hannon@enron.com'
p3
ag3
ag3
ag3
ag3
ag3
ag3
ag3
ag3
ag3
ag3
ag3
ag3
ag3
ag3
aS'rockford.meyer@enron.com'
p4
ag4
ag4
ag4
ag4
ag4
ag4
ag4
ag4
ag4
ag4
ag4
ag4
aS'jeffrey.mcmahon@enron.com'
p5
ag5
ag5
ag5
ag5
ag5
ag5
ag5
ag5
ag5
ag5
ag5
ag5
ag5
ag5
ag5
ag5
ag5
ag5
ag5
ag5
ag5
ag5
ag5
ag5
ag5
ag5
aS'stanley.horton@enron.com'
p6
ag6
ag6
ag6
ag6
ag6
ag6
ag6
ag6
ag6
ag6
ag6
ag6
ag6
ag6
ag6
ag6
ag6
ag6
ag6
ag6
ag6
ag6
ag6
ag6
ag6
ag6
ag6
ag6
ag6
ag6
ag6
ag6
ag6
ag6
ag6
ag6
ag6
ag6
ag6
ag6
ag6
ag6
ag6
ag6
ag6
ag6
ag6
ag6
ag6
ag6
ag6
ag6
ag6
ag6
ag6
ag6
ag6
ag6
ag6
ag6
ag6
ag6
ag6
ag6
ag6
ag6
ag6
ag6
ag6
ag6
ag6
ag6
ag6
ag6
ag6
ag6
ag6
ag6
ag6
ag6
ag6
ag6
ag6
ag6
ag6
ag6
ag6
ag6
ag6
ag6
ag6
ag6
ag6
ag6
ag6
ag6
ag6
ag6
ag6
ag6
ag6
ag6
ag6
ag6
ag6
ag6
ag6
ag6
ag6
ag6
ag6
ag6
ag6
ag6
ag6
ag6
ag6
ag6
ag6
ag6
ag6
ag6
ag6
ag6
ag6
ag6
ag6
ag6
ag6
ag6
ag6
ag6
ag6
ag6
ag6
ag6
ag6
ag6
ag6
ag6
ag6
ag6
ag6
ag6
ag6
ag6
ag6
ag6
ag6
ag6
ag6
ag6
ag6
ag6
ag6
ag6
ag6
ag6
ag6
ag6
ag6
ag6
ag6
ag6
ag6
ag6
ag6
ag6
ag6
ag6
ag6
ag6
ag6
ag6
ag6
ag6
ag6
ag6
ag6
ag6
ag6
ag6
ag6
ag6
ag6
ag6
ag6
ag6
ag6
ag6
ag6
ag6
ag6
ag6
ag6
ag6
ag6
ag6
ag6
ag6
ag6
ag6
ag6
ag6
ag6
ag6
ag6
ag6
ag6
ag6
ag6
ag6
ag6
ag6
ag6
ag6
ag6
ag6
ag6
ag6
ag6
ag6
ag6
ag6
ag6
ag6
ag6
ag6
ag6
ag6
ag6
ag6
ag6
ag6
ag6
ag6
ag6
ag6
ag6
ag6
ag6
ag6
ag6
ag6
ag6
ag6
ag6
ag6
ag6
ag6
ag6
ag6
ag6
ag6
ag6
ag6
ag6
ag6
ag6
ag6
ag6
ag6
ag6
ag6
ag6
ag6
ag6
ag6
ag6
ag6
ag6
ag6
ag6
ag6
ag6
ag6
ag6
ag6
ag6
ag6
ag6
ag6
ag6
ag6
ag6
ag6
ag6
ag6
ag6
ag6
ag6
ag6
ag6
ag6
ag6
ag6
ag6
ag6
ag6
ag6
ag6
ag6
ag6
ag6
ag6
ag6
ag6
ag6
ag6
ag6
ag6
ag6
ag6
ag6
ag6
ag6
ag6
ag6
ag6
ag6
ag6
ag6
ag6
ag6
ag6
ag6
ag6
ag6
ag6
ag6
ag6
ag6
ag6
ag6
ag6
ag6
ag6
ag6
ag6
ag6
ag6
ag6
ag6
ag6
ag6
ag6
ag6
ag6
ag6
ag6
ag6
ag6
ag6
ag6
ag6
ag6
ag6
ag6
ag6
ag6
ag6
ag6
ag6
ag6
ag6
ag6
ag6
ag6
ag6
ag6
ag6
ag6
ag6
ag6
ag6
ag6
ag6
ag6
ag6
ag6
ag6
ag6
ag6
ag6
ag6
ag6
ag6
ag6
ag6
ag6
ag6
ag6
ag6
ag6
ag6
ag6
ag6
ag6
ag6
ag6
ag6
ag6
ag6
ag6
ag6
ag6
ag6
ag6
ag6
ag6
ag6
ag6
ag6
ag6
ag6
ag6
ag6
ag6
ag6
ag6
ag6
ag6
ag6
ag6
ag6
ag6
ag6
ag6
ag6
ag6
ag6
ag6
ag6
ag6
ag6
ag6
ag6
ag6
ag6
ag6
ag6
ag6
ag6
ag6
ag6
ag6
ag6
ag6
ag6
ag6
ag6
ag6
ag6
ag6
ag6
ag6
ag6
ag6
ag6
ag6
ag6
ag6
ag6
ag6
ag6
ag6
ag6
ag6
ag6
ag6
ag6
ag6
ag6
ag6
ag6
ag6
ag6
ag6
ag6
aS'greg.piper@enron.com'
p7
ag7
ag7
ag7
ag7
ag7
ag7
ag7
ag7
ag7
ag7
ag7
ag7
ag7
ag7
ag7
ag7
ag7
ag7
ag7
ag7
ag7
ag7
ag7
ag7
ag7
ag7
ag7
ag7
ag7
ag7
ag7
ag7
ag7
ag7
ag7
ag7
ag7
ag7
ag7
ag7
ag7
ag7
ag7
ag7
ag7
ag7
ag7
ag7
ag7
ag7
ag7
ag7
ag7
ag7
ag7
ag7
ag7
ag7
ag7
ag7
ag7
ag7
ag7
ag7
ag7
ag7
ag7
ag7
ag7
ag7
ag7
ag7
ag7
ag7
ag7
ag7
ag7
ag7
ag7
ag7
ag7
ag7
ag7
ag7
ag7
ag7
ag7
ag7
ag7
ag7
ag7
ag7
ag7
ag7
ag7
ag7
ag7
ag7
ag7
ag7
ag7
ag7
ag7
ag7
ag7
ag7
ag7
ag7
ag7
ag7
ag7
ag7
ag7
ag7
ag7
ag7
ag7
ag7
ag7
ag7
ag7
ag7
ag7
ag7
ag7
ag7
ag7
ag7
ag7
ag7
ag7
ag7
ag7
ag7
ag7
ag7
ag7
ag7
ag7
ag7
ag7
ag7
ag7
ag7
ag7
ag7
ag7
ag7
ag7
ag7
ag7
ag7
ag7
ag7
ag7
ag7
ag7
ag7
ag7
ag7
ag7
ag7
ag7
ag7
ag7
ag7
aS'gene.humphrey@enron.com'
p8
ag8
ag8
ag8
ag8
ag8
ag8
ag8
ag8
aS'adam.umanoff@enron.com'
p9
ag9
ag9
ag9
ag9
ag9
ag9
ag9
ag9
ag9
ag9
ag9
ag9
ag9
ag9
ag9
ag9
ag9
aS'jeremy.blachman@enron.com'
p10
ag10
ag10
ag10
ag10
ag10
ag10
ag10
ag10
ag10
ag10
ag10
aS'marty.sunde@enron.com'
p11
ag11
ag11
ag11
ag11
ag11
ag11
ag11
ag11
ag11
ag11
ag11
ag11
aS'dana.gibbs@enron.com'
p12
ag12
ag12
ag12
ag12
ag12
aS'wes.colwell@enron.com'
p13
ag13
ag13
ag13
ag13
ag13
ag13
ag13
ag13
ag13
ag13
ag13
ag13
ag13
ag13
ag13
ag13
ag13
ag13
ag13
ag13
ag13
ag13
ag13
ag13
ag13
ag13
ag13
ag13
aS's..muller@enron.com'
p14
ag14
ag14
ag14
ag14
ag14
ag14
ag14
ag14
ag14
ag14
ag14
ag14
ag14
ag14
ag14
aS'charlene.jackson@enron.com'
p15
ag15
ag15
ag15
ag15
ag15
ag15
ag15
ag15
ag15
ag15
ag15
ag15
ag15
ag15
ag15
ag15
ag15
ag15
aS'rob.walls@enron.com'
p16
ag16
ag16
ag16
ag16
ag16
ag16
ag16
ag16
ag16
ag16
ag16
ag16
ag16
ag16
ag16
ag16
ag16
ag16
ag16
ag16
ag16
ag16
ag16
ag16
ag16
ag16
ag16
ag16
ag16
ag16
ag16
ag16
ag16
ag16
ag16
ag16
ag16
ag16
ag16
ag16
ag16
ag16
ag16
ag16
ag16
ag16
ag16
ag16
ag16
ag16
ag16
ag16
ag16
ag16
ag16
ag16
ag16
ag16
ag16
ag16
ag16
ag16
ag16
ag16
ag16
ag16
ag16
ag16
ag16
ag16
ag16
ag16
ag16
ag16
ag16
ag16
ag16
ag16
ag16
ag16
ag16
ag16
ag16
ag16
ag16
ag16
ag16
aS'louise.kitchen@enron.com'
p17
ag17
ag17
ag17
ag17
ag17
ag17
ag17
ag17
ag17
ag17
ag17
ag17
ag17
ag17
ag17
ag17
ag17
ag17
ag17
ag17
ag17
ag17
ag17
ag17
ag17
ag17
ag17
ag17
ag17
ag17
ag17
ag17
ag17
ag17
ag17
ag17
ag17
ag17
ag17
ag17
ag17
ag17
ag17
ag17
ag17
ag17
ag17
ag17
ag17
ag17
ag17
ag17
ag17
ag17
ag17
ag17
ag17
ag17
ag17
ag17
ag17
ag17
ag17
ag17
ag17
ag17
ag17
ag17
ag17
ag17
ag17
ag17
ag17
ag17
ag17
ag17
ag17
ag17
ag17
ag17
ag17
ag17
ag17
ag17
ag17
ag17
ag17
ag17
ag17
ag17
ag17
ag17
ag17
ag17
ag17
ag17
ag17
ag17
ag17
ag17
ag17
ag17
ag17
ag17
ag17
ag17
ag17
ag17
ag17
ag17
ag17
ag17
ag17
ag17
ag17
ag17
ag17
ag17
ag17
ag17
ag17
ag17
ag17
ag17
ag17
ag17
ag17
ag17
ag17
ag17
ag17
ag17
ag17
ag17
ag17
ag17
ag17
ag17
ag17
ag17
ag17
ag17
ag17
ag17
ag17
ag17
ag17
ag17
ag17
ag17
ag17
ag17
ag17
ag17
ag17
ag17
ag17
ag17
ag17
ag17
ag17
ag17
ag17
ag17
ag17
ag17
ag17
ag17
ag17
ag17
ag17
ag17
ag17
ag17
ag17
ag17
ag17
ag17
ag17
ag17
ag17
ag17
ag17
ag17
ag17
ag17
ag17
ag17
ag17
ag17
ag17
ag17
ag17
ag17
ag17
ag17
ag17
ag17
ag17
ag17
ag17
ag17
ag17
ag17
ag17
ag17
ag17
ag17
ag17
ag17
ag17
ag17
ag17
ag17
ag17
ag17
ag17
ag17
ag17
ag17
ag17
ag17
ag17
ag17
ag17
ag17
ag17
ag17
ag17
ag17
ag17
ag17
ag17
ag17
ag17
ag17
ag17
ag17
ag17
ag17
ag17
ag17
ag17
ag17
ag17
ag17
ag17
ag17
ag17
ag17
ag17
ag17
ag17
ag17
ag17
ag17
ag17
ag17
ag17
ag17
ag17
ag17
ag17
ag17
ag17
ag17
ag17
ag17
ag17
ag17
ag17
ag17
ag17
ag17
ag17
ag17
ag17
ag17
ag17
ag17
ag17
ag17
ag17
ag17
ag17
ag17
ag17
ag17
ag17
ag17
ag17
ag17
ag17
ag17
ag17
ag17
ag17
ag17
ag17
ag17
ag17
ag17
ag17
ag17
ag17
ag17
ag17
ag17
ag17
ag17
ag17
ag17
ag17
ag17
ag17
ag17
ag17
ag17
ag17
ag17
ag17
ag17
ag17
ag17
ag17
ag17
ag17
ag17
ag17
ag17
ag17
ag17
ag17
ag17
ag17
ag17
ag17
ag17
ag17
ag17
ag17
ag17
ag17
ag17
ag17
ag17
ag17
ag17
ag17
ag17
ag17
ag17
ag17
ag17
ag17
ag17
ag17
ag17
ag17
ag17
ag17
ag17
ag17
ag17
ag17
ag17
ag17
ag17
ag17
ag17
ag17
ag17
ag17
ag17
ag17
ag17
ag17
ag17
ag17
ag17
ag17
ag17
ag17
ag17
ag17
ag17
ag17
ag17
ag17
ag17
ag17
ag17
ag17
ag17
ag17
ag17
ag17
ag17
ag17
ag17
ag17
ag17
ag17
ag17
ag17
ag17
ag17
ag17
ag17
ag17
ag17
ag17
ag17
ag17
ag17
ag17
ag17
ag17
ag17
ag17
ag17
ag17
ag17
ag17
ag17
ag17
ag17
ag17
ag17
ag17
ag17
ag17
ag17
ag17
ag17
ag17
ag17
ag17
ag17
ag17
ag17
ag17
ag17
ag17
ag17
ag17
ag17
ag17
ag17
ag17
ag17
ag17
ag17
ag17
ag17
ag17
ag17
ag17
ag17
ag17
ag17
ag17
ag17
ag17
ag17
ag17
ag17
ag17
ag17
ag17
ag17
ag17
ag17
ag17
ag17
ag17
ag17
ag17
ag17
ag17
ag17
ag17
ag17
ag17
ag17
ag17
ag17
ag17
ag17
ag17
ag17
ag17
ag17
ag17
ag17
ag17
ag17
ag17
ag17
ag17
ag17
ag17
ag17
ag17
ag17
ag17
ag17
ag17
ag17
ag17
ag17
ag17
ag17
ag17
ag17
ag17
ag17
ag17
ag17
ag17
ag17
ag17
ag17
ag17
ag17
ag17
ag17
ag17
ag17
ag17
ag17
ag17
ag17
ag17
ag17
ag17
ag17
ag17
ag17
ag17
ag17
ag17
ag17
ag17
ag17
ag17
ag17
ag17
ag17
ag17
ag17
ag17
ag17
ag17
ag17
ag17
ag17
ag17
ag17
ag17
ag17
ag17
ag17
ag17
ag17
ag17
ag17
ag17
ag17
ag17
ag17
ag17
ag17
ag17
ag17
ag17
ag17
ag17
ag17
ag17
ag17
ag17
ag17
ag17
ag17
ag17
ag17
ag17
ag17
ag17
ag17
ag17
ag17
ag17
ag17
ag17
ag17
ag17
ag17
ag17
ag17
ag17
ag17
ag17
ag17
ag17
ag17
ag17
ag17
ag17
ag17
ag17
ag17
ag17
ag17
ag17
ag17
ag17
ag17
ag17
ag17
ag17
ag17
ag17
ag17
ag17
ag17
ag17
ag17
ag17
ag17
ag17
ag17
ag17
ag17
ag17
ag17
ag17
ag17
ag17
ag17
ag17
ag17
ag17
ag17
ag17
ag17
ag17
ag17
ag17
ag17
ag17
ag17
ag17
ag17
ag17
ag17
ag17
ag17
ag17
ag17
ag17
ag17
ag17
ag17
ag17
ag17
ag17
ag17
ag17
ag17
ag17
ag17
ag17
ag17
ag17
ag17
ag17
ag17
ag17
ag17
ag17
ag17
ag17
ag17
ag17
ag17
ag17
ag17
ag17
ag17
ag17
ag17
ag17
ag17
ag17
ag17
ag17
ag17
ag17
ag17
ag17
ag17
ag17
ag17
ag17
ag17
ag17
ag17
ag17
ag17
ag17
ag17
ag17
ag17
ag17
ag17
ag17
ag17
ag17
ag17
ag17
ag17
ag17
ag17
ag17
ag17
ag17
ag17
ag17
ag17
ag17
ag17
ag17
ag17
ag17
ag17
ag17
ag17
ag17
ag17
ag17
ag17
ag17
ag17
ag17
ag17
ag17
ag17
ag17
ag17
ag17
ag17
ag17
ag17
ag17
ag17
ag17
ag17
ag17
ag17
ag17
ag17
ag17
ag17
ag17
ag17
ag17
ag17
ag17
ag17
ag17
ag17
ag17
ag17
ag17
ag17
ag17
ag17
ag17
ag17
ag17
ag17
ag17
ag17
ag17
ag17
ag17
ag17
ag17
ag17
ag17
ag17
ag17
ag17
ag17
ag17
ag17
ag17
ag17
ag17
ag17
ag17
ag17
ag17
ag17
ag17
ag17
ag17
ag17
ag17
ag17
ag17
ag17
ag17
ag17
ag17
ag17
ag17
ag17
ag17
ag17
ag17
ag17
ag17
ag17
ag17
ag17
ag17
ag17
ag17
ag17
ag17
ag17
ag17
ag17
ag17
ag17
ag17
ag17
ag17
ag17
ag17
ag17
ag17
ag17
ag17
ag17
ag17
ag17
ag17
ag17
ag17
ag17
ag17
ag17
ag17
ag17
ag17
ag17
ag17
ag17
ag17
ag17
ag17
ag17
ag17
ag17
ag17
ag17
ag17
ag17
ag17
ag17
ag17
ag17
ag17
ag17
ag17
ag17
ag17
ag17
ag17
ag17
ag17
ag17
ag17
ag17
ag17
ag17
ag17
ag17
ag17
ag17
ag17
ag17
ag17
ag17
ag17
ag17
ag17
ag17
ag17
ag17
ag17
ag17
ag17
ag17
ag17
ag17
ag17
ag17
ag17
ag17
ag17
ag17
ag17
ag17
ag17
ag17
ag17
ag17
ag17
ag17
ag17
ag17
ag17
ag17
ag17
ag17
ag17
ag17
ag17
ag17
ag17
ag17
ag17
ag17
ag17
ag17
ag17
ag17
ag17
ag17
ag17
ag17
ag17
ag17
ag17
ag17
ag17
ag17
ag17
ag17
ag17
ag17
ag17
ag17
ag17
ag17
ag17
ag17
ag17
ag17
ag17
ag17
ag17
ag17
ag17
ag17
ag17
ag17
ag17
ag17
ag17
ag17
ag17
ag17
ag17
ag17
ag17
ag17
ag17
ag17
ag17
ag17
ag17
ag17
ag17
ag17
ag17
ag17
ag17
ag17
ag17
ag17
ag17
ag17
ag17
ag17
ag17
ag17
ag17
ag17
ag17
ag17
ag17
ag17
ag17
ag17
ag17
ag17
ag17
ag17
ag17
ag17
ag17
ag17
ag17
ag17
ag17
ag17
ag17
ag17
ag17
ag17
ag17
ag17
ag17
ag17
ag17
ag17
ag17
ag17
ag17
ag17
ag17
ag17
ag17
ag17
ag17
ag17
ag17
ag17
ag17
ag17
ag17
ag17
ag17
ag17
ag17
ag17
ag17
ag17
ag17
ag17
ag17
ag17
ag17
ag17
ag17
ag17
ag17
ag17
ag17
ag17
ag17
ag17
ag17
ag17
ag17
ag17
ag17
ag17
ag17
ag17
ag17
ag17
ag17
ag17
ag17
ag17
ag17
ag17
ag17
ag17
ag17
ag17
ag17
ag17
ag17
ag17
ag17
ag17
ag17
ag17
ag17
ag17
ag17
ag17
ag17
ag17
ag17
ag17
ag17
ag17
ag17
ag17
ag17
ag17
ag17
ag17
ag17
ag17
ag17
ag17
ag17
ag17
ag17
ag17
ag17
ag17
ag17
ag17
ag17
ag17
ag17
ag17
ag17
ag17
ag17
ag17
ag17
ag17
ag17
ag17
ag17
ag17
ag17
ag17
ag17
ag17
ag17
ag17
ag17
ag17
ag17
ag17
ag17
ag17
ag17
ag17
ag17
ag17
ag17
ag17
ag17
ag17
ag17
ag17
ag17
ag17
ag17
ag17
ag17
ag17
ag17
ag17
ag17
ag17
ag17
ag17
ag17
ag17
ag17
ag17
ag17
ag17
ag17
ag17
ag17
ag17
ag17
ag17
ag17
ag17
ag17
ag17
ag17
ag17
ag17
ag17
ag17
ag17
ag17
ag17
ag17
ag17
ag17
ag17
ag17
ag17
ag17
ag17
ag17
ag17
ag17
ag17
ag17
ag17
ag17
ag17
ag17
ag17
ag17
ag17
ag17
ag17
ag17
ag17
ag17
ag17
ag17
ag17
ag17
ag17
ag17
ag17
ag17
ag17
ag17
ag17
ag17
ag17
ag17
ag17
ag17
ag17
ag17
ag17
ag17
ag17
ag17
ag17
ag17
ag17
ag17
ag17
ag17
ag17
ag17
ag17
ag17
ag17
ag17
ag17
ag17
ag17
ag17
ag17
ag17
ag17
ag17
ag17
ag17
ag17
ag17
ag17
ag17
ag17
ag17
ag17
ag17
ag17
ag17
ag17
ag17
ag17
ag17
ag17
ag17
ag17
ag17
ag17
ag17
ag17
ag17
ag17
ag17
ag17
ag17
ag17
ag17
ag17
ag17
ag17
ag17
ag17
ag17
ag17
ag17
ag17
ag17
ag17
ag17
ag17
ag17
ag17
ag17
ag17
ag17
ag17
ag17
ag17
ag17
ag17
ag17
ag17
ag17
ag17
ag17
ag17
ag17
ag17
ag17
ag17
ag17
ag17
ag17
ag17
ag17
ag17
ag17
ag17
ag17
ag17
ag17
ag17
ag17
ag17
ag17
ag17
ag17
ag17
ag17
ag17
ag17
ag17
ag17
ag17
ag17
ag17
ag17
ag17
ag17
ag17
ag17
ag17
ag17
ag17
ag17
ag17
ag17
ag17
ag17
ag17
ag17
ag17
ag17
ag17
ag17
ag17
ag17
ag17
ag17
ag17
ag17
ag17
ag17
ag17
ag17
ag17
ag17
ag17
ag17
ag17
ag17
ag17
ag17
ag17
ag17
ag17
ag17
ag17
ag17
ag17
ag17
ag17
ag17
ag17
ag17
ag17
ag17
ag17
ag17
ag17
ag17
ag17
ag17
ag17
ag17
ag17
ag17
ag17
ag17
ag17
ag17
ag17
ag17
ag17
ag17
ag17
ag17
ag17
ag17
ag17
ag17
ag17
ag17
ag17
ag17
ag17
ag17
ag17
ag17
ag17
ag17
ag17
ag17
ag17
ag17
ag17
ag17
ag17
ag17
ag17
ag17
ag17
ag17
ag17
ag17
ag17
ag17
ag17
ag17
ag17
ag17
ag17
ag17
ag17
ag17
ag17
ag17
ag17
ag17
ag17
ag17
ag17
ag17
ag17
ag17
ag17
ag17
ag17
ag17
ag17
ag17
ag17
ag17
ag17
ag17
ag17
ag17
ag17
ag17
ag17
ag17
ag17
ag17
ag17
ag17
ag17
ag17
ag17
ag17
ag17
ag17
ag17
ag17
ag17
ag17
ag17
ag17
ag17
ag17
ag17
ag17
ag17
ag17
ag17
ag17
ag17
ag17
ag17
ag17
ag17
ag17
ag17
ag17
ag17
ag17
ag17
ag17
ag17
ag17
ag17
ag17
ag17
ag17
ag17
ag17
aS'jeffrey.shankman@enron.com'
p18
ag18
ag18
ag18
ag18
ag18
ag18
ag18
ag18
ag18
ag18
ag18
ag18
ag18
ag18
ag18
ag18
ag18
ag18
ag18
ag18
ag18
ag18
ag18
ag18
ag18
ag18
ag18
ag18
ag18
ag18
ag18
ag18
ag18
ag18
ag18
ag18
ag18
ag18
ag18
ag18
ag18
ag18
ag18
ag18
ag18
ag18
ag18
ag18
ag18
ag18
ag18
ag18
ag18
ag18
ag18
ag18
ag18
ag18
ag18
ag18
ag18
ag18
ag18
ag18
ag18
ag18
ag18
ag18
ag18
ag18
ag18
ag18
ag18
ag18
ag18
ag18
ag18
ag18
ag18
ag18
ag18
ag18
ag18
ag18
ag18
ag18
ag18
ag18
ag18
ag18
ag18
ag18
ag18
ag18
ag18
ag18
ag18
ag18
ag18
ag18
ag18
ag18
ag18
ag18
ag18
ag18
ag18
ag18
ag18
ag18
ag18
ag18
ag18
ag18
ag18
ag18
ag18
ag18
ag18
ag18
ag18
ag18
ag18
ag18
ag18
ag18
ag18
ag18
ag18
ag18
ag18
ag18
ag18
ag18
ag18
ag18
ag18
ag18
ag18
ag18
ag18
ag18
ag18
ag18
ag18
ag18
ag18
ag18
ag18
ag18
ag18
ag18
ag18
ag18
ag18
ag18
ag18
ag18
ag18
ag18
ag18
ag18
ag18
ag18
ag18
ag18
ag18
ag18
ag18
ag18
ag18
ag18
ag18
ag18
ag18
ag18
ag18
ag18
ag18
ag18
ag18
ag18
ag18
ag18
ag18
ag18
ag18
ag18
ag18
ag18
ag18
ag18
ag18
ag18
ag18
ag18
ag18
ag18
ag18
ag18
ag18
ag18
ag18
ag18
ag18
ag18
ag18
ag18
ag18
ag18
ag18
ag18
ag18
ag18
ag18
ag18
ag18
ag18
ag18
ag18
ag18
ag18
ag18
ag18
ag18
ag18
ag18
ag18
ag18
ag18
ag18
ag18
ag18
ag18
ag18
ag18
ag18
ag18
ag18
ag18
ag18
ag18
ag18
ag18
ag18
ag18
ag18
ag18
ag18
ag18
ag18
ag18
ag18
ag18
ag18
ag18
ag18
ag18
ag18
ag18
ag18
ag18
ag18
ag18
ag18
ag18
ag18
ag18
ag18
ag18
ag18
ag18
ag18
ag18
ag18
ag18
ag18
ag18
ag18
ag18
ag18
ag18
ag18
ag18
ag18
ag18
ag18
ag18
ag18
ag18
ag18
ag18
ag18
ag18
ag18
ag18
ag18
ag18
ag18
ag18
ag18
ag18
ag18
ag18
ag18
ag18
ag18
ag18
ag18
ag18
ag18
ag18
ag18
ag18
ag18
ag18
ag18
ag18
ag18
ag18
ag18
ag18
ag18
ag18
ag18
ag18
ag18
ag18
ag18
ag18
ag18
ag18
ag18
ag18
ag18
ag18
ag18
ag18
ag18
ag18
ag18
ag18
ag18
ag18
ag18
ag18
ag18
ag18
ag18
ag18
ag18
ag18
ag18
ag18
ag18
ag18
ag18
ag18
ag18
ag18
ag18
ag18
ag18
ag18
ag18
ag18
ag18
ag18
ag18
ag18
ag18
ag18
ag18
ag18
ag18
ag18
ag18
ag18
ag18
ag18
ag18
ag18
ag18
ag18
ag18
ag18
ag18
ag18
ag18
ag18
ag18
ag18
ag18
ag18
ag18
ag18
ag18
ag18
ag18
ag18
ag18
ag18
ag18
ag18
ag18
ag18
ag18
ag18
ag18
ag18
ag18
ag18
ag18
ag18
ag18
ag18
ag18
ag18
ag18
ag18
ag18
ag18
ag18
ag18
ag18
ag18
ag18
ag18
ag18
ag18
ag18
ag18
ag18
ag18
ag18
ag18
ag18
ag18
ag18
ag18
ag18
ag18
ag18
ag18
ag18
ag18
ag18
ag18
ag18
ag18
ag18
ag18
ag18
ag18
ag18
ag18
ag18
ag18
ag18
ag18
ag18
ag18
ag18
ag18
ag18
ag18
ag18
ag18
ag18
ag18
ag18
ag18
ag18
ag18
ag18
ag18
ag18
ag18
ag18
ag18
ag18
ag18
ag18
ag18
ag18
ag18
ag18
ag18
ag18
ag18
ag18
ag18
ag18
ag18
ag18
ag18
ag18
ag18
ag18
ag18
ag18
ag18
ag18
ag18
ag18
ag18
ag18
ag18
ag18
ag18
ag18
ag18
ag18
ag18
ag18
ag18
ag18
ag18
ag18
ag18
ag18
ag18
ag18
ag18
ag18
ag18
ag18
ag18
ag18
ag18
ag18
ag18
ag18
ag18
ag18
ag18
ag18
ag18
ag18
ag18
ag18
ag18
ag18
ag18
ag18
ag18
ag18
ag18
ag18
ag18
ag18
ag18
ag18
ag18
ag18
ag18
ag18
ag18
ag18
ag18
ag18
ag18
ag18
ag18
ag18
ag18
ag18
ag18
ag18
ag18
ag18
ag18
ag18
ag18
ag18
ag18
ag18
ag18
ag18
ag18
ag18
ag18
ag18
ag18
ag18
ag18
ag18
ag18
ag18
ag18
ag18
ag18
ag18
ag18
ag18
ag18
ag18
ag18
ag18
ag18
ag18
ag18
ag18
ag18
ag18
ag18
ag18
ag18
ag18
ag18
ag18
ag18
ag18
ag18
ag18
ag18
ag18
ag18
ag18
ag18
ag18
ag18
ag18
ag18
ag18
ag18
ag18
ag18
ag18
ag18
ag18
ag18
ag18
ag18
ag18
ag18
ag18
ag18
ag18
ag18
ag18
ag18
ag18
ag18
ag18
ag18
ag18
ag18
ag18
ag18
ag18
ag18
ag18
ag18
ag18
ag18
ag18
ag18
ag18
ag18
ag18
ag18
ag18
ag18
ag18
ag18
ag18
ag18
ag18
ag18
ag18
ag18
ag18
ag18
ag18
ag18
ag18
ag18
ag18
ag18
ag18
ag18
ag18
ag18
ag18
ag18
ag18
ag18
ag18
ag18
ag18
ag18
ag18
ag18
ag18
ag18
ag18
ag18
ag18
ag18
ag18
ag18
ag18
ag18
ag18
ag18
ag18
ag18
ag18
ag18
ag18
ag18
ag18
ag18
ag18
ag18
ag18
ag18
ag18
ag18
ag18
ag18
ag18
ag18
ag18
ag18
ag18
ag18
ag18
ag18
ag18
ag18
ag18
ag18
ag18
ag18
ag18
ag18
ag18
ag18
ag18
ag18
ag18
ag18
ag18
ag18
ag18
ag18
ag18
ag18
ag18
ag18
ag18
ag18
ag18
ag18
ag18
ag18
ag18
ag18
ag18
ag18
ag18
ag18
ag18
ag18
ag18
ag18
ag18
ag18
ag18
ag18
ag18
ag18
ag18
ag18
ag18
ag18
ag18
ag18
ag18
ag18
ag18
ag18
ag18
ag18
ag18
ag18
ag18
ag18
ag18
ag18
ag18
ag18
ag18
ag18
ag18
ag18
ag18
ag18
ag18
ag18
ag18
ag18
ag18
ag18
ag18
ag18
ag18
ag18
ag18
ag18
ag18
ag18
ag18
ag18
ag18
ag18
ag18
ag18
ag18
ag18
ag18
ag18
ag18
ag18
ag18
ag18
ag18
ag18
ag18
ag18
ag18
ag18
ag18
ag18
ag18
ag18
ag18
ag18
ag18
ag18
ag18
ag18
ag18
ag18
ag18
ag18
ag18
ag18
ag18
ag18
ag18
ag18
ag18
ag18
ag18
ag18
ag18
ag18
ag18
ag18
ag18
ag18
ag18
ag18
ag18
ag18
ag18
ag18
ag18
ag18
ag18
ag18
ag18
ag18
ag18
ag18
ag18
ag18
ag18
ag18
ag18
ag18
ag18
ag18
ag18
ag18
ag18
ag18
ag18
ag18
ag18
ag18
ag18
ag18
ag18
ag18
ag18
ag18
ag18
ag18
ag18
ag18
ag18
ag18
ag18
ag18
ag18
ag18
ag18
ag18
ag18
ag18
ag18
ag18
ag18
ag18
ag18
ag18
ag18
ag18
ag18
ag18
ag18
ag18
ag18
ag18
ag18
ag18
ag18
ag18
ag18
ag18
ag18
ag18
ag18
ag18
ag18
ag18
ag18
ag18
ag18
ag18
ag18
ag18
ag18
ag18
ag18
ag18
ag18
ag18
ag18
ag18
ag18
ag18
ag18
ag18
ag18
ag18
ag18
ag18
ag18
ag18
ag18
ag18
ag18
ag18
ag18
ag18
ag18
ag18
ag18
ag18
ag18
ag18
ag18
ag18
ag18
ag18
ag18
ag18
ag18
ag18
ag18
ag18
ag18
ag18
ag18
ag18
ag18
ag18
ag18
ag18
ag18
ag18
ag18
ag18
ag18
ag18
ag18
ag18
ag18
ag18
ag18
ag18
ag18
ag18
ag18
ag18
ag18
ag18
ag18
ag18
ag18
ag18
ag18
ag18
ag18
ag18
ag18
ag18
ag18
ag18
ag18
ag18
ag18
ag18
ag18
ag18
ag18
ag18
ag18
ag18
ag18
ag18
ag18
ag18
ag18
ag18
ag18
ag18
ag18
ag18
ag18
ag18
ag18
ag18
ag18
ag18
ag18
ag18
ag18
ag18
ag18
ag18
ag18
ag18
ag18
ag18
ag18
ag18
ag18
ag18
ag18
ag18
ag18
ag18
ag18
ag18
ag18
ag18
ag18
ag18
ag18
ag18
aS'rick.bergsieker@enron.com'
p19
ag19
ag19
ag19
ag19
ag19
ag19
ag19
ag19
ag19
ag19
ag19
ag19
ag19
ag19
ag19
ag19
ag19
ag19
ag19
ag19
ag19
aS'philippe.bibi@enron.com'
p20
ag20
ag20
ag20
ag20
ag20
ag20
ag20
ag20
ag20
ag20
ag20
ag20
ag20
aS'paula.rieker@enron.com'
p21
ag21
ag21
ag21
ag21
ag21
ag21
ag21
ag21
ag21
ag21
ag21
ag21
ag21
ag21
ag21
ag21
ag21
ag21
ag21
ag21
ag21
ag21
ag21
ag21
ag21
ag21
ag21
ag21
ag21
ag21
ag21
ag21
ag21
ag21
ag21
ag21
ag21
ag21
ag21
ag21
ag21
ag21
ag21
ag21
ag21
ag21
ag21
ag21
ag21
ag21
ag21
ag21
ag21
ag21
ag21
ag21
ag21
ag21
ag21
ag21
ag21
ag21
ag21
ag21
ag21
ag21
ag21
ag21
ag21
ag21
ag21
ag21
ag21
ag21
ag21
aS'sally.beck@enron.com'
p22
ag22
ag22
ag22
ag22
ag22
ag22
ag22
ag22
ag22
ag22
ag22
ag22
ag22
ag22
ag22
ag22
ag22
ag22
ag22
ag22
ag22
ag22
ag22
ag22
ag22
ag22
ag22
ag22
ag22
ag22
ag22
ag22
ag22
ag22
ag22
ag22
ag22
ag22
ag22
ag22
ag22
ag22
ag22
ag22
ag22
ag22
ag22
ag22
ag22
ag22
ag22
ag22
ag22
ag22
ag22
ag22
ag22
ag22
ag22
ag22
ag22
ag22
ag22
ag22
ag22
ag22
ag22
ag22
ag22
ag22
ag22
ag22
ag22
ag22
ag22
ag22
ag22
ag22
ag22
ag22
ag22
ag22
ag22
ag22
ag22
ag22
ag22
ag22
ag22
ag22
ag22
ag22
ag22
ag22
ag22
ag22
ag22
ag22
ag22
ag22
ag22
ag22
ag22
ag22
ag22
ag22
ag22
ag22
ag22
ag22
ag22
ag22
ag22
ag22
ag22
ag22
ag22
ag22
ag22
ag22
ag22
ag22
ag22
ag22
ag22
ag22
ag22
ag22
ag22
ag22
ag22
ag22
ag22
ag22
ag22
ag22
ag22
ag22
ag22
ag22
ag22
ag22
ag22
ag22
ag22
ag22
ag22
ag22
ag22
ag22
ag22
ag22
ag22
ag22
ag22
ag22
ag22
ag22
ag22
ag22
ag22
ag22
ag22
ag22
ag22
ag22
ag22
ag22
ag22
ag22
ag22
ag22
ag22
ag22
ag22
ag22
ag22
ag22
ag22
ag22
ag22
ag22
ag22
ag22
ag22
ag22
ag22
ag22
ag22
ag22
ag22
ag22
ag22
ag22
ag22
ag22
ag22
ag22
ag22
ag22
ag22
ag22
ag22
ag22
ag22
ag22
ag22
ag22
ag22
ag22
ag22
ag22
ag22
ag22
ag22
ag22
ag22
ag22
ag22
ag22
ag22
ag22
ag22
ag22
ag22
ag22
ag22
ag22
ag22
ag22
ag22
ag22
ag22
ag22
ag22
ag22
ag22
ag22
ag22
ag22
ag22
ag22
ag22
ag22
ag22
ag22
ag22
ag22
ag22
ag22
ag22
ag22
ag22
ag22
ag22
ag22
ag22
ag22
ag22
ag22
ag22
ag22
ag22
ag22
ag22
ag22
ag22
ag22
ag22
ag22
ag22
ag22
ag22
ag22
ag22
ag22
ag22
ag22
ag22
ag22
ag22
ag22
ag22
ag22
ag22
ag22
ag22
ag22
ag22
ag22
ag22
ag22
ag22
ag22
ag22
ag22
ag22
ag22
ag22
ag22
ag22
ag22
ag22
ag22
ag22
ag22
ag22
ag22
ag22
ag22
ag22
ag22
ag22
ag22
ag22
ag22
ag22
ag22
ag22
ag22
ag22
ag22
ag22
ag22
ag22
ag22
ag22
ag22
ag22
ag22
ag22
ag22
ag22
ag22
ag22
ag22
ag22
ag22
ag22
ag22
ag22
ag22
ag22
ag22
ag22
ag22
ag22
ag22
ag22
ag22
ag22
ag22
ag22
ag22
ag22
ag22
ag22
ag22
ag22
ag22
ag22
ag22
ag22
ag22
ag22
ag22
ag22
ag22
ag22
ag22
ag22
ag22
ag22
ag22
ag22
ag22
ag22
ag22
ag22
ag22
ag22
ag22
ag22
ag22
ag22
ag22
ag22
ag22
ag22
ag22
ag22
ag22
ag22
ag22
ag22
ag22
ag22
ag22
ag22
ag22
ag22
ag22
ag22
ag22
ag22
ag22
ag22
ag22
ag22
ag22
ag22
ag22
ag22
ag22
ag22
ag22
ag22
ag22
ag22
ag22
ag22
ag22
ag22
ag22
ag22
ag22
ag22
ag22
ag22
ag22
ag22
ag22
ag22
ag22
ag22
ag22
ag22
ag22
ag22
ag22
ag22
ag22
ag22
ag22
ag22
ag22
ag22
ag22
ag22
ag22
ag22
ag22
ag22
ag22
ag22
ag22
ag22
ag22
ag22
ag22
ag22
ag22
ag22
ag22
ag22
ag22
ag22
ag22
ag22
ag22
ag22
ag22
ag22
ag22
ag22
ag22
ag22
ag22
ag22
ag22
ag22
ag22
ag22
ag22
ag22
ag22
ag22
ag22
ag22
ag22
ag22
ag22
ag22
ag22
ag22
ag22
ag22
ag22
ag22
ag22
ag22
ag22
ag22
ag22
ag22
ag22
ag22
ag22
ag22
ag22
ag22
ag22
ag22
ag22
ag22
ag22
ag22
ag22
ag22
ag22
ag22
ag22
ag22
ag22
ag22
ag22
ag22
ag22
ag22
ag22
ag22
ag22
ag22
ag22
ag22
ag22
ag22
ag22
ag22
ag22
ag22
ag22
ag22
ag22
ag22
ag22
ag22
ag22
ag22
ag22
ag22
ag22
ag22
ag22
ag22
ag22
ag22
ag22
ag22
ag22
ag22
ag22
ag22
ag22
ag22
ag22
ag22
ag22
ag22
ag22
ag22
ag22
ag22
ag22
ag22
ag22
ag22
ag22
ag22
ag22
ag22
ag22
ag22
ag22
ag22
ag22
ag22
ag22
ag22
ag22
ag22
ag22
ag22
ag22
ag22
ag22
ag22
ag22
ag22
ag22
ag22
ag22
ag22
ag22
ag22
ag22
ag22
ag22
ag22
ag22
ag22
ag22
ag22
ag22
ag22
ag22
ag22
ag22
ag22
ag22
ag22
ag22
ag22
ag22
ag22
ag22
ag22
ag22
ag22
ag22
ag22
ag22
ag22
ag22
ag22
ag22
ag22
ag22
ag22
ag22
ag22
ag22
ag22
ag22
ag22
ag22
ag22
ag22
ag22
ag22
ag22
ag22
ag22
ag22
ag22
ag22
ag22
ag22
ag22
ag22
ag22
ag22
ag22
ag22
ag22
ag22
ag22
ag22
ag22
ag22
ag22
ag22
ag22
ag22
ag22
ag22
ag22
ag22
ag22
ag22
ag22
ag22
ag22
ag22
ag22
ag22
ag22
ag22
ag22
ag22
ag22
ag22
ag22
ag22
ag22
ag22
ag22
ag22
ag22
ag22
ag22
ag22
ag22
ag22
ag22
ag22
ag22
ag22
ag22
ag22
ag22
ag22
ag22
ag22
ag22
ag22
ag22
ag22
ag22
ag22
ag22
ag22
ag22
ag22
ag22
ag22
ag22
ag22
ag22
ag22
ag22
ag22
ag22
ag22
ag22
ag22
ag22
ag22
ag22
ag22
ag22
ag22
ag22
ag22
ag22
ag22
ag22
ag22
ag22
ag22
ag22
ag22
ag22
ag22
ag22
ag22
ag22
ag22
ag22
ag22
ag22
ag22
ag22
ag22
ag22
ag22
ag22
ag22
ag22
ag22
ag22
ag22
ag22
ag22
ag22
ag22
ag22
ag22
ag22
ag22
ag22
ag22
ag22
ag22
ag22
ag22
ag22
ag22
ag22
ag22
ag22
ag22
ag22
ag22
ag22
ag22
ag22
ag22
ag22
ag22
ag22
ag22
ag22
ag22
ag22
ag22
ag22
ag22
ag22
ag22
ag22
ag22
ag22
ag22
ag22
ag22
ag22
ag22
ag22
ag22
ag22
ag22
ag22
ag22
ag22
ag22
ag22
ag22
ag22
ag22
ag22
ag22
ag22
ag22
ag22
ag22
ag22
ag22
ag22
ag22
ag22
ag22
ag22
ag22
ag22
ag22
ag22
ag22
ag22
ag22
ag22
ag22
ag22
ag22
ag22
ag22
ag22
ag22
ag22
ag22
ag22
ag22
ag22
ag22
ag22
ag22
ag22
ag22
ag22
ag22
ag22
ag22
ag22
ag22
ag22
ag22
ag22
ag22
ag22
ag22
ag22
ag22
ag22
ag22
ag22
ag22
ag22
ag22
ag22
ag22
ag22
ag22
ag22
ag22
ag22
ag22
ag22
ag22
ag22
ag22
ag22
ag22
ag22
ag22
ag22
ag22
ag22
ag22
ag22
ag22
ag22
ag22
ag22
ag22
ag22
ag22
ag22
ag22
ag22
ag22
ag22
ag22
ag22
ag22
ag22
ag22
ag22
ag22
ag22
ag22
ag22
ag22
ag22
ag22
ag22
ag22
ag22
ag22
ag22
ag22
ag22
ag22
ag22
ag22
ag22
ag22
ag22
ag22
ag22
ag22
ag22
ag22
ag22
ag22
ag22
ag22
ag22
ag22
ag22
ag22
ag22
ag22
ag22
ag22
ag22
ag22
ag22
ag22
ag22
ag22
ag22
ag22
ag22
ag22
ag22
ag22
ag22
ag22
ag22
ag22
ag22
ag22
ag22
ag22
ag22
ag22
ag22
ag22
ag22
ag22
ag22
ag22
ag22
ag22
ag22
ag22
ag22
ag22
ag22
ag22
ag22
ag22
ag22
ag22
ag22
ag22
ag22
ag22
ag22
ag22
ag22
ag22
ag22
ag22
ag22
ag22
ag22
ag22
ag22
ag22
ag22
ag22
ag22
ag22
ag22
ag22
ag22
ag22
ag22
ag22
ag22
ag22
ag22
ag22
ag22
ag22
ag22
ag22
ag22
ag22
ag22
ag22
ag22
ag22
ag22
ag22
ag22
ag22
ag22
ag22
ag22
ag22
ag22
ag22
ag22
ag22
ag22
ag22
ag22
ag22
ag22
ag22
ag22
ag22
ag22
ag22
ag22
ag22
ag22
ag22
ag22
ag22
ag22
ag22
ag22
ag22
ag22
ag22
ag22
ag22
ag22
ag22
ag22
ag22
ag22
ag22
ag22
ag22
ag22
ag22
ag22
ag22
ag22
ag22
ag22
ag22
ag22
ag22
ag22
ag22
ag22
ag22
ag22
ag22
ag22
ag22
ag22
ag22
ag22
ag22
ag22
ag22
ag22
ag22
ag22
ag22
ag22
ag22
ag22
ag22
ag22
ag22
ag22
ag22
ag22
ag22
ag22
ag22
ag22
ag22
ag22
ag22
ag22
ag22
ag22
ag22
ag22
ag22
ag22
ag22
ag22
ag22
ag22
ag22
ag22
ag22
ag22
ag22
ag22
ag22
ag22
ag22
ag22
ag22
ag22
ag22
ag22
ag22
ag22
ag22
ag22
ag22
ag22
ag22
ag22
ag22
ag22
ag22
ag22
ag22
ag22
ag22
ag22
ag22
ag22
ag22
ag22
ag22
ag22
ag22
ag22
ag22
ag22
ag22
ag22
ag22
ag22
ag22
ag22
ag22
ag22
ag22
ag22
ag22
ag22
ag22
ag22
ag22
ag22
ag22
ag22
ag22
ag22
ag22
ag22
ag22
ag22
ag22
ag22
ag22
ag22
ag22
ag22
ag22
ag22
ag22
ag22
ag22
ag22
ag22
ag22
ag22
ag22
ag22
ag22
ag22
ag22
ag22
ag22
ag22
ag22
ag22
ag22
ag22
ag22
ag22
ag22
ag22
ag22
ag22
ag22
ag22
ag22
ag22
ag22
ag22
ag22
ag22
ag22
ag22
ag22
ag22
ag22
ag22
ag22
ag22
ag22
ag22
ag22
ag22
ag22
ag22
ag22
ag22
ag22
ag22
ag22
ag22
ag22
ag22
ag22
ag22
ag22
ag22
ag22
ag22
ag22
ag22
ag22
ag22
ag22
ag22
ag22
ag22
ag22
ag22
ag22
ag22
ag22
ag22
ag22
ag22
ag22
ag22
ag22
ag22
ag22
ag22
ag22
ag22
ag22
ag22
ag22
ag22
ag22
ag22
ag22
ag22
ag22
ag22
ag22
ag22
ag22
ag22
ag22
ag22
ag22
ag22
ag22
ag22
ag22
ag22
ag22
ag22
ag22
ag22
ag22
ag22
ag22
ag22
ag22
ag22
ag22
ag22
ag22
ag22
ag22
ag22
ag22
ag22
ag22
ag22
ag22
ag22
ag22
ag22
ag22
ag22
ag22
ag22
ag22
ag22
ag22
ag22
ag22
ag22
ag22
ag22
ag22
ag22
ag22
ag22
ag22
ag22
ag22
ag22
ag22
ag22
ag22
ag22
ag22
ag22
ag22
ag22
ag22
ag22
ag22
ag22
ag22
ag22
ag22
ag22
ag22
ag22
ag22
ag22
ag22
ag22
ag22
ag22
ag22
ag22
ag22
ag22
ag22
ag22
ag22
ag22
ag22
ag22
ag22
ag22
ag22
ag22
ag22
ag22
ag22
ag22
ag22
ag22
ag22
ag22
ag22
ag22
ag22
ag22
ag22
ag22
ag22
ag22
ag22
ag22
ag22
ag22
ag22
ag22
ag22
ag22
ag22
ag22
ag22
ag22
ag22
ag22
ag22
ag22
ag22
ag22
ag22
ag22
ag22
ag22
ag22
ag22
ag22
ag22
ag22
ag22
ag22
ag22
ag22
ag22
ag22
ag22
ag22
ag22
ag22
ag22
ag22
ag22
ag22
ag22
ag22
ag22
ag22
ag22
ag22
ag22
ag22
ag22
ag22
ag22
ag22
ag22
ag22
ag22
ag22
ag22
ag22
ag22
ag22
ag22
ag22
ag22
ag22
ag22
ag22
ag22
ag22
ag22
ag22
ag22
ag22
ag22
ag22
ag22
ag22
ag22
ag22
ag22
ag22
ag22
ag22
ag22
ag22
ag22
ag22
ag22
ag22
ag22
ag22
ag22
ag22
ag22
ag22
ag22
ag22
ag22
ag22
ag22
ag22
ag22
ag22
ag22
ag22
ag22
ag22
ag22
ag22
ag22
ag22
ag22
ag22
ag22
ag22
ag22
ag22
ag22
ag22
ag22
ag22
ag22
ag22
ag22
ag22
ag22
ag22
ag22
ag22
ag22
ag22
ag22
ag22
ag22
ag22
ag22
ag22
ag22
ag22
ag22
ag22
ag22
ag22
ag22
ag22
ag22
ag22
ag22
ag22
ag22
ag22
ag22
ag22
ag22
ag22
ag22
ag22
ag22
ag22
ag22
ag22
ag22
ag22
ag22
ag22
ag22
ag22
ag22
ag22
ag22
ag22
ag22
ag22
ag22
ag22
ag22
ag22
ag22
ag22
ag22
ag22
ag22
ag22
ag22
ag22
ag22
ag22
ag22
ag22
ag22
ag22
ag22
ag22
ag22
ag22
ag22
ag22
ag22
aS'david.haug@enron.com'
p23
ag23
ag23
ag23
ag23
ag23
ag23
ag23
aS'gary.hickerson@enron.com'
p24
ag24
ag24
ag24
ag24
ag24
ag24
ag24
ag24
ag24
ag24
ag24
ag24
ag24
ag24
ag24
aS'richard.lewis@enron.com'
p25
ag25
ag25
ag25
ag25
ag25
ag25
ag25
ag25
ag25
ag25
ag25
aS'robert.hayes@enron.com'
p26
ag26
ag26
ag26
ag26
ag26
ag26
ag26
ag26
ag26
ag26
ag26
aS'danny.mccarty@enron.com'
p27
ag27
ag27
ag27
ag27
ag27
ag27
ag27
ag27
ag27
ag27
ag27
ag27
ag27
ag27
ag27
ag27
ag27
ag27
ag27
ag27
ag27
ag27
ag27
ag27
ag27
ag27
ag27
ag27
ag27
ag27
ag27
ag27
ag27
ag27
ag27
ag27
ag27
ag27
ag27
ag27
ag27
ag27
ag27
ag27
ag27
ag27
ag27
ag27
ag27
ag27
ag27
ag27
ag27
ag27
ag27
ag27
ag27
ag27
ag27
ag27
ag27
ag27
ag27
ag27
ag27
ag27
ag27
ag27
ag27
ag27
ag27
ag27
ag27
ag27
ag27
ag27
ag27
ag27
ag27
ag27
ag27
ag27
ag27
ag27
ag27
ag27
ag27
ag27
ag27
ag27
ag27
ag27
ag27
ag27
ag27
ag27
ag27
ag27
ag27
ag27
ag27
ag27
ag27
ag27
ag27
ag27
ag27
ag27
ag27
ag27
ag27
ag27
ag27
ag27
ag27
ag27
ag27
ag27
ag27
ag27
ag27
ag27
ag27
ag27
ag27
ag27
ag27
ag27
ag27
ag27
ag27
ag27
ag27
ag27
ag27
ag27
ag27
ag27
ag27
ag27
ag27
ag27
ag27
ag27
ag27
ag27
ag27
ag27
ag27
ag27
ag27
ag27
ag27
ag27
ag27
ag27
ag27
ag27
ag27
ag27
ag27
ag27
ag27
ag27
ag27
ag27
ag27
ag27
ag27
ag27
ag27
ag27
ag27
ag27
ag27
ag27
ag27
ag27
ag27
ag27
ag27
ag27
ag27
ag27
ag27
ag27
ag27
ag27
ag27
ag27
ag27
ag27
ag27
ag27
ag27
ag27
ag27
ag27
ag27
ag27
ag27
ag27
ag27
ag27
ag27
ag27
ag27
ag27
ag27
ag27
ag27
ag27
aS'dan.leff@enron.com'
p28
ag28
ag28
ag28
ag28
ag28
ag28
ag28
ag28
ag28
ag28
ag28
ag28
ag28
ag28
ag28
ag28
ag28
ag28
ag28
ag28
ag28
ag28
ag28
ag28
ag28
ag28
ag28
ag28
ag28
ag28
ag28
ag28
ag28
ag28
ag28
ag28
aS'john.lavorato@enron.com'
p29
ag29
ag29
ag29
ag29
ag29
ag29
ag29
ag29
ag29
ag29
ag29
ag29
ag29
ag29
ag29
ag29
ag29
ag29
ag29
ag29
ag29
ag29
ag29
ag29
ag29
ag29
ag29
ag29
ag29
ag29
ag29
ag29
ag29
ag29
ag29
ag29
ag29
ag29
ag29
ag29
ag29
ag29
ag29
ag29
ag29
ag29
ag29
ag29
ag29
ag29
ag29
ag29
ag29
ag29
ag29
ag29
ag29
ag29
ag29
ag29
ag29
ag29
ag29
ag29
ag29
ag29
ag29
ag29
ag29
ag29
ag29
ag29
ag29
ag29
ag29
ag29
ag29
ag29
ag29
ag29
ag29
ag29
ag29
ag29
ag29
ag29
ag29
ag29
ag29
ag29
ag29
ag29
ag29
ag29
ag29
ag29
ag29
ag29
ag29
ag29
ag29
ag29
ag29
ag29
ag29
ag29
ag29
ag29
ag29
ag29
ag29
ag29
ag29
ag29
ag29
ag29
ag29
ag29
ag29
ag29
ag29
ag29
ag29
ag29
ag29
ag29
ag29
ag29
ag29
ag29
ag29
ag29
ag29
ag29
ag29
ag29
ag29
ag29
ag29
ag29
ag29
ag29
ag29
ag29
ag29
ag29
ag29
ag29
ag29
ag29
ag29
ag29
ag29
ag29
ag29
ag29
ag29
ag29
ag29
ag29
ag29
ag29
ag29
ag29
ag29
ag29
ag29
ag29
ag29
ag29
ag29
ag29
ag29
ag29
ag29
ag29
ag29
ag29
ag29
ag29
ag29
ag29
ag29
ag29
ag29
ag29
ag29
ag29
ag29
ag29
ag29
ag29
ag29
ag29
ag29
ag29
ag29
ag29
ag29
ag29
ag29
ag29
ag29
ag29
ag29
ag29
ag29
ag29
ag29
ag29
ag29
ag29
ag29
ag29
ag29
ag29
ag29
ag29
ag29
ag29
ag29
ag29
ag29
ag29
ag29
ag29
ag29
ag29
ag29
ag29
ag29
ag29
ag29
ag29
ag29
ag29
ag29
ag29
ag29
ag29
ag29
ag29
ag29
ag29
ag29
ag29
ag29
ag29
ag29
ag29
ag29
ag29
ag29
ag29
ag29
ag29
ag29
ag29
ag29
ag29
ag29
ag29
ag29
ag29
ag29
ag29
ag29
ag29
ag29
ag29
ag29
ag29
ag29
ag29
ag29
ag29
ag29
ag29
ag29
ag29
ag29
ag29
ag29
ag29
ag29
ag29
ag29
ag29
ag29
ag29
ag29
ag29
ag29
ag29
ag29
ag29
ag29
ag29
ag29
ag29
ag29
ag29
ag29
ag29
ag29
ag29
ag29
ag29
ag29
ag29
ag29
ag29
ag29
ag29
ag29
ag29
ag29
ag29
ag29
ag29
ag29
ag29
ag29
ag29
ag29
ag29
ag29
ag29
ag29
ag29
ag29
ag29
ag29
ag29
ag29
ag29
ag29
ag29
ag29
ag29
ag29
ag29
ag29
ag29
ag29
ag29
ag29
ag29
ag29
ag29
ag29
ag29
ag29
ag29
ag29
ag29
ag29
ag29
ag29
ag29
ag29
ag29
ag29
ag29
ag29
ag29
ag29
ag29
ag29
ag29
ag29
ag29
ag29
ag29
ag29
ag29
ag29
ag29
ag29
ag29
ag29
ag29
ag29
ag29
ag29
ag29
ag29
ag29
ag29
ag29
ag29
ag29
ag29
ag29
ag29
ag29
ag29
ag29
ag29
ag29
ag29
ag29
ag29
ag29
ag29
ag29
ag29
ag29
ag29
ag29
ag29
ag29
ag29
ag29
ag29
ag29
ag29
ag29
ag29
ag29
ag29
ag29
ag29
ag29
ag29
ag29
ag29
ag29
ag29
ag29
ag29
ag29
ag29
ag29
ag29
ag29
ag29
ag29
ag29
ag29
ag29
ag29
ag29
ag29
ag29
ag29
ag29
ag29
ag29
ag29
ag29
ag29
ag29
ag29
ag29
ag29
ag29
ag29
ag29
ag29
ag29
ag29
ag29
ag29
ag29
ag29
ag29
ag29
ag29
ag29
ag29
ag29
ag29
ag29
ag29
ag29
ag29
ag29
ag29
ag29
ag29
ag29
ag29
ag29
ag29
ag29
ag29
ag29
ag29
ag29
ag29
ag29
ag29
ag29
ag29
ag29
ag29
ag29
ag29
ag29
ag29
ag29
ag29
ag29
ag29
ag29
ag29
ag29
ag29
ag29
ag29
ag29
ag29
ag29
ag29
ag29
ag29
ag29
ag29
ag29
ag29
ag29
ag29
ag29
ag29
ag29
ag29
ag29
ag29
ag29
ag29
ag29
ag29
ag29
ag29
ag29
ag29
ag29
ag29
ag29
ag29
ag29
ag29
ag29
ag29
ag29
ag29
ag29
ag29
ag29
ag29
ag29
ag29
ag29
ag29
ag29
ag29
ag29
ag29
ag29
ag29
ag29
ag29
ag29
ag29
ag29
ag29
ag29
ag29
ag29
ag29
ag29
ag29
ag29
ag29
ag29
ag29
ag29
ag29
ag29
ag29
ag29
ag29
ag29
ag29
ag29
ag29
ag29
ag29
ag29
ag29
ag29
ag29
ag29
ag29
ag29
ag29
ag29
ag29
ag29
ag29
ag29
ag29
ag29
ag29
ag29
ag29
ag29
ag29
ag29
ag29
ag29
ag29
ag29
ag29
ag29
ag29
ag29
ag29
ag29
ag29
ag29
ag29
ag29
ag29
ag29
ag29
ag29
ag29
ag29
ag29
ag29
ag29
ag29
ag29
ag29
ag29
ag29
ag29
ag29
ag29
ag29
ag29
ag29
ag29
ag29
ag29
ag29
ag29
ag29
ag29
ag29
ag29
ag29
ag29
ag29
ag29
ag29
ag29
ag29
ag29
ag29
ag29
ag29
ag29
ag29
ag29
ag29
ag29
ag29
ag29
ag29
ag29
ag29
ag29
ag29
ag29
ag29
ag29
ag29
ag29
ag29
ag29
ag29
ag29
ag29
ag29
ag29
ag29
ag29
ag29
ag29
ag29
ag29
ag29
ag29
ag29
ag29
ag29
ag29
ag29
ag29
ag29
ag29
ag29
ag29
ag29
ag29
ag29
ag29
ag29
ag29
ag29
ag29
ag29
ag29
ag29
ag29
ag29
ag29
ag29
ag29
ag29
ag29
ag29
ag29
ag29
ag29
ag29
ag29
ag29
ag29
ag29
ag29
ag29
ag29
ag29
ag29
ag29
ag29
ag29
ag29
ag29
ag29
ag29
ag29
ag29
ag29
ag29
ag29
ag29
ag29
ag29
ag29
ag29
ag29
ag29
ag29
ag29
ag29
ag29
ag29
ag29
ag29
ag29
ag29
ag29
ag29
ag29
ag29
ag29
ag29
ag29
ag29
ag29
ag29
ag29
ag29
ag29
ag29
ag29
ag29
ag29
ag29
ag29
ag29
ag29
ag29
ag29
ag29
ag29
ag29
ag29
ag29
ag29
ag29
ag29
ag29
ag29
ag29
ag29
ag29
ag29
ag29
ag29
ag29
ag29
ag29
ag29
ag29
ag29
ag29
ag29
ag29
ag29
ag29
ag29
ag29
ag29
ag29
ag29
ag29
ag29
ag29
ag29
ag29
ag29
ag29
ag29
ag29
ag29
ag29
ag29
ag29
ag29
ag29
ag29
ag29
ag29
ag29
ag29
ag29
ag29
ag29
ag29
ag29
ag29
ag29
ag29
ag29
ag29
ag29
ag29
ag29
ag29
ag29
ag29
ag29
ag29
ag29
ag29
ag29
ag29
ag29
ag29
ag29
ag29
ag29
ag29
ag29
ag29
ag29
ag29
ag29
ag29
ag29
ag29
ag29
ag29
ag29
ag29
ag29
ag29
ag29
ag29
ag29
ag29
ag29
ag29
ag29
ag29
ag29
ag29
ag29
ag29
ag29
ag29
ag29
ag29
ag29
ag29
ag29
ag29
ag29
ag29
ag29
ag29
ag29
ag29
ag29
ag29
ag29
ag29
ag29
ag29
ag29
ag29
ag29
ag29
ag29
ag29
ag29
ag29
ag29
ag29
ag29
ag29
ag29
ag29
ag29
ag29
ag29
ag29
ag29
ag29
ag29
ag29
ag29
ag29
ag29
ag29
ag29
ag29
ag29
ag29
ag29
ag29
ag29
ag29
ag29
ag29
ag29
ag29
ag29
ag29
ag29
ag29
ag29
ag29
ag29
ag29
ag29
ag29
ag29
ag29
ag29
ag29
ag29
ag29
ag29
ag29
ag29
ag29
ag29
ag29
ag29
ag29
ag29
ag29
ag29
ag29
ag29
ag29
ag29
ag29
ag29
ag29
ag29
ag29
ag29
ag29
ag29
ag29
ag29
ag29
ag29
ag29
ag29
ag29
ag29
ag29
ag29
ag29
ag29
ag29
ag29
ag29
ag29
ag29
ag29
ag29
ag29
ag29
ag29
ag29
ag29
ag29
ag29
ag29
ag29
ag29
ag29
ag29
ag29
ag29
ag29
ag29
ag29
ag29
ag29
ag29
ag29
ag29
ag29
ag29
ag29
ag29
ag29
ag29
ag29
ag29
ag29
ag29
ag29
ag29
ag29
ag29
ag29
ag29
ag29
ag29
ag29
ag29
ag29
ag29
ag29
ag29
ag29
ag29
ag29
ag29
ag29
ag29
ag29
ag29
ag29
ag29
ag29
ag29
ag29
ag29
ag29
ag29
ag29
ag29
ag29
ag29
ag29
ag29
ag29
ag29
ag29
ag29
ag29
ag29
ag29
ag29
ag29
ag29
ag29
ag29
ag29
ag29
ag29
ag29
ag29
ag29
ag29
ag29
ag29
ag29
ag29
ag29
ag29
ag29
ag29
ag29
ag29
ag29
ag29
ag29
ag29
ag29
ag29
ag29
ag29
ag29
ag29
ag29
ag29
ag29
ag29
ag29
ag29
ag29
ag29
ag29
ag29
ag29
ag29
ag29
ag29
ag29
ag29
ag29
ag29
ag29
ag29
ag29
ag29
ag29
ag29
ag29
ag29
ag29
ag29
ag29
ag29
ag29
aS'ken.powers@enron.com'
p30
ag30
ag30
ag30
ag30
ag30
ag30
ag30
ag30
ag30
ag30
ag30
ag30
ag30
ag30
ag30
ag30
ag30
ag30
ag30
ag30
ag30
aS'james.bannantine@enron.com'
p31
ag31
ag31
ag31
ag31
ag31
ag31
ag31
aS'richard.shapiro@enron.com'
p32
ag32
ag32
ag32
ag32
ag32
ag32
ag32
ag32
ag32
ag32
ag32
ag32
ag32
ag32
ag32
ag32
ag32
ag32
ag32
ag32
ag32
ag32
ag32
ag32
ag32
ag32
ag32
ag32
ag32
ag32
ag32
ag32
ag32
ag32
ag32
ag32
ag32
ag32
ag32
ag32
ag32
ag32
ag32
ag32
ag32
ag32
ag32
ag32
ag32
ag32
ag32
ag32
ag32
ag32
ag32
ag32
ag32
ag32
ag32
ag32
ag32
ag32
ag32
ag32
ag32
ag32
ag32
ag32
ag32
ag32
ag32
ag32
ag32
ag32
ag32
ag32
ag32
ag32
ag32
ag32
ag32
ag32
ag32
ag32
ag32
ag32
ag32
ag32
ag32
ag32
ag32
ag32
ag32
ag32
ag32
ag32
ag32
ag32
ag32
ag32
ag32
ag32
ag32
ag32
ag32
ag32
ag32
ag32
ag32
ag32
ag32
ag32
ag32
ag32
ag32
ag32
ag32
ag32
ag32
ag32
ag32
ag32
ag32
ag32
ag32
ag32
ag32
ag32
ag32
ag32
ag32
ag32
ag32
ag32
ag32
ag32
ag32
ag32
ag32
ag32
ag32
ag32
ag32
ag32
ag32
ag32
ag32
ag32
ag32
ag32
ag32
ag32
ag32
ag32
ag32
ag32
ag32
ag32
ag32
ag32
ag32
ag32
ag32
ag32
ag32
ag32
ag32
ag32
ag32
ag32
ag32
ag32
ag32
ag32
ag32
ag32
ag32
ag32
ag32
ag32
ag32
ag32
ag32
ag32
ag32
ag32
ag32
ag32
ag32
ag32
ag32
ag32
ag32
ag32
ag32
ag32
ag32
ag32
ag32
ag32
ag32
ag32
ag32
ag32
ag32
ag32
ag32
ag32
ag32
ag32
ag32
ag32
ag32
ag32
ag32
ag32
ag32
ag32
ag32
ag32
ag32
ag32
ag32
ag32
ag32
ag32
ag32
ag32
ag32
ag32
ag32
ag32
ag32
ag32
ag32
ag32
ag32
ag32
ag32
ag32
ag32
ag32
ag32
ag32
ag32
ag32
ag32
ag32
ag32
ag32
ag32
ag32
ag32
ag32
ag32
ag32
ag32
ag32
ag32
ag32
ag32
ag32
ag32
ag32
ag32
ag32
ag32
ag32
ag32
ag32
ag32
ag32
ag32
ag32
ag32
ag32
ag32
ag32
ag32
ag32
ag32
ag32
ag32
ag32
ag32
ag32
ag32
ag32
ag32
ag32
ag32
ag32
ag32
ag32
ag32
ag32
ag32
ag32
ag32
ag32
ag32
ag32
ag32
ag32
ag32
ag32
ag32
ag32
ag32
ag32
ag32
ag32
ag32
ag32
ag32
ag32
ag32
ag32
ag32
ag32
ag32
ag32
ag32
ag32
ag32
ag32
ag32
ag32
ag32
ag32
ag32
ag32
ag32
ag32
ag32
ag32
ag32
ag32
ag32
ag32
ag32
ag32
ag32
ag32
ag32
ag32
ag32
ag32
ag32
ag32
ag32
ag32
ag32
ag32
ag32
ag32
ag32
ag32
ag32
ag32
ag32
ag32
ag32
ag32
ag32
ag32
ag32
ag32
ag32
ag32
ag32
ag32
ag32
ag32
ag32
ag32
ag32
ag32
ag32
ag32
ag32
ag32
ag32
ag32
ag32
ag32
ag32
ag32
ag32
ag32
ag32
ag32
ag32
ag32
ag32
ag32
ag32
ag32
ag32
ag32
ag32
ag32
ag32
ag32
ag32
ag32
ag32
ag32
ag32
ag32
ag32
ag32
ag32
ag32
ag32
ag32
ag32
ag32
ag32
ag32
ag32
ag32
ag32
ag32
ag32
ag32
ag32
ag32
ag32
ag32
ag32
ag32
ag32
ag32
ag32
ag32
ag32
ag32
ag32
ag32
ag32
ag32
ag32
ag32
ag32
ag32
ag32
ag32
ag32
ag32
ag32
ag32
ag32
ag32
ag32
ag32
ag32
ag32
ag32
ag32
ag32
ag32
ag32
ag32
ag32
ag32
ag32
ag32
ag32
ag32
ag32
ag32
ag32
ag32
ag32
ag32
ag32
ag32
ag32
ag32
ag32
ag32
ag32
ag32
ag32
ag32
ag32
ag32
ag32
ag32
ag32
ag32
ag32
ag32
ag32
ag32
ag32
ag32
ag32
ag32
ag32
ag32
ag32
ag32
ag32
ag32
ag32
ag32
ag32
ag32
ag32
ag32
ag32
ag32
ag32
ag32
ag32
ag32
ag32
ag32
ag32
ag32
ag32
ag32
ag32
ag32
ag32
ag32
ag32
ag32
ag32
ag32
ag32
ag32
ag32
ag32
ag32
ag32
ag32
ag32
ag32
ag32
ag32
ag32
ag32
ag32
ag32
ag32
ag32
ag32
ag32
ag32
ag32
ag32
ag32
ag32
ag32
ag32
ag32
ag32
ag32
ag32
ag32
ag32
ag32
ag32
ag32
ag32
ag32
ag32
ag32
ag32
ag32
ag32
ag32
ag32
ag32
ag32
ag32
ag32
ag32
ag32
ag32
ag32
ag32
ag32
ag32
ag32
aS'john.sherriff@enron.com'
p33
ag33
ag33
ag33
ag33
ag33
ag33
ag33
ag33
ag33
ag33
ag33
ag33
ag33
ag33
ag33
ag33
ag33
ag33
ag33
ag33
ag33
ag33
ag33
ag33
ag33
ag33
ag33
ag33
ag33
ag33
ag33
ag33
ag33
ag33
ag33
ag33
ag33
ag33
ag33
ag33
ag33
ag33
ag33
ag33
ag33
ag33
ag33
aS'rex.shelby@enron.com'
p34
ag34
ag34
ag34
ag34
ag34
ag34
ag34
ag34
ag34
ag34
ag34
ag34
ag34
ag34
ag34
ag34
ag34
ag34
ag34
ag34
ag34
ag34
ag34
ag34
ag34
ag34
aS'joseph.deffner@enron.com'
p35
ag35
ag35
ag35
ag35
ag35
ag35
ag35
ag35
ag35
ag35
ag35
ag35
ag35
ag35
ag35
ag35
ag35
ag35
ag35
ag35
ag35
ag35
ag35
ag35
ag35
ag35
ag35
ag35
ag35
ag35
ag35
ag35
ag35
ag35
ag35
ag35
ag35
ag35
ag35
ag35
ag35
ag35
ag35
ag35
ag35
ag35
ag35
ag35
ag35
ag35
ag35
ag35
ag35
ag35
ag35
ag35
ag35
ag35
ag35
ag35
ag35
ag35
ag35
ag35
ag35
ag35
ag35
ag35
ag35
aS'greg.whalley@enron.com'
p36
ag36
ag36
ag36
ag36
ag36
ag36
ag36
ag36
ag36
ag36
ag36
ag36
ag36
ag36
ag36
ag36
ag36
ag36
ag36
ag36
ag36
ag36
ag36
ag36
ag36
ag36
ag36
ag36
ag36
ag36
ag36
ag36
ag36
ag36
ag36
ag36
ag36
ag36
ag36
ag36
ag36
ag36
ag36
ag36
ag36
ag36
ag36
ag36
ag36
ag36
ag36
ag36
ag36
ag36
ag36
ag36
ag36
ag36
ag36
ag36
ag36
ag36
ag36
ag36
ag36
ag36
ag36
ag36
ag36
ag36
ag36
ag36
ag36
ag36
ag36
ag36
ag36
ag36
ag36
ag36
ag36
ag36
ag36
ag36
ag36
ag36
ag36
ag36
ag36
ag36
ag36
ag36
ag36
ag36
ag36
ag36
ag36
ag36
ag36
ag36
ag36
ag36
ag36
ag36
ag36
ag36
ag36
ag36
ag36
ag36
ag36
ag36
ag36
ag36
ag36
ag36
ag36
ag36
ag36
ag36
ag36
ag36
ag36
ag36
ag36
ag36
ag36
ag36
ag36
ag36
ag36
ag36
ag36
ag36
ag36
ag36
ag36
ag36
ag36
ag36
ag36
ag36
ag36
ag36
ag36
ag36
ag36
ag36
ag36
ag36
ag36
ag36
ag36
ag36
ag36
ag36
ag36
ag36
ag36
ag36
ag36
ag36
ag36
ag36
ag36
ag36
ag36
ag36
ag36
ag36
ag36
ag36
ag36
ag36
ag36
ag36
ag36
ag36
ag36
ag36
ag36
ag36
ag36
ag36
ag36
ag36
ag36
ag36
ag36
ag36
ag36
ag36
ag36
ag36
ag36
ag36
aS'mike.mcconnell@enron.com'
p37
ag37
ag37
ag37
ag37
ag37
ag37
ag37
ag37
ag37
ag37
ag37
ag37
ag37
ag37
ag37
ag37
ag37
ag37
ag37
ag37
ag37
ag37
ag37
ag37
ag37
ag37
ag37
ag37
ag37
ag37
ag37
ag37
ag37
ag37
ag37
ag37
ag37
ag37
ag37
ag37
ag37
ag37
ag37
ag37
ag37
ag37
ag37
ag37
ag37
ag37
ag37
ag37
ag37
ag37
ag37
ag37
ag37
ag37
ag37
ag37
ag37
ag37
ag37
ag37
ag37
ag37
ag37
ag37
ag37
ag37
ag37
ag37
ag37
ag37
ag37
ag37
ag37
ag37
ag37
ag37
ag37
ag37
ag37
ag37
ag37
ag37
ag37
ag37
ag37
ag37
ag37
ag37
ag37
ag37
ag37
ag37
ag37
ag37
ag37
ag37
ag37
ag37
ag37
ag37
ag37
ag37
ag37
ag37
ag37
ag37
ag37
ag37
ag37
ag37
ag37
ag37
ag37
ag37
ag37
ag37
ag37
ag37
ag37
ag37
ag37
ag37
ag37
ag37
ag37
ag37
ag37
ag37
ag37
ag37
ag37
ag37
ag37
ag37
ag37
ag37
ag37
ag37
ag37
ag37
ag37
ag37
ag37
ag37
ag37
ag37
ag37
ag37
ag37
ag37
ag37
ag37
ag37
ag37
ag37
ag37
ag37
ag37
ag37
ag37
ag37
ag37
ag37
ag37
ag37
ag37
ag37
ag37
ag37
ag37
ag37
ag37
ag37
ag37
ag37
ag37
ag37
ag37
ag37
ag37
ag37
ag37
ag37
ag37
ag37
ag37
ag37
ag37
ag37
ag37
ag37
ag37
ag37
ag37
ag37
ag37
ag37
ag37
ag37
ag37
ag37
ag37
ag37
ag37
ag37
ag37
ag37
ag37
ag37
ag37
ag37
ag37
ag37
ag37
ag37
ag37
ag37
ag37
ag37
ag37
ag37
ag37
ag37
ag37
ag37
ag37
ag37
ag37
ag37
ag37
ag37
ag37
ag37
ag37
ag37
ag37
ag37
ag37
ag37
ag37
ag37
ag37
ag37
ag37
ag37
ag37
ag37
ag37
ag37
ag37
ag37
ag37
ag37
ag37
ag37
ag37
ag37
ag37
ag37
ag37
ag37
ag37
ag37
ag37
ag37
ag37
ag37
ag37
ag37
ag37
ag37
ag37
ag37
ag37
ag37
ag37
ag37
ag37
ag37
ag37
ag37
ag37
ag37
ag37
ag37
ag37
ag37
ag37
ag37
ag37
ag37
ag37
ag37
ag37
ag37
ag37
ag37
ag37
ag37
ag37
ag37
ag37
ag37
ag37
ag37
ag37
ag37
ag37
ag37
ag37
ag37
ag37
ag37
ag37
ag37
ag37
ag37
ag37
ag37
ag37
ag37
ag37
ag37
ag37
ag37
ag37
ag37
ag37
ag37
ag37
ag37
ag37
ag37
ag37
ag37
ag37
ag37
ag37
ag37
ag37
ag37
ag37
ag37
ag37
ag37
ag37
ag37
ag37
ag37
ag37
ag37
ag37
ag37
ag37
ag37
ag37
ag37
ag37
ag37
ag37
ag37
ag37
ag37
ag37
ag37
ag37
ag37
ag37
ag37
ag37
ag37
ag37
ag37
ag37
ag37
ag37
ag37
ag37
ag37
ag37
ag37
ag37
ag37
ag37
ag37
ag37
ag37
ag37
ag37
ag37
ag37
ag37
ag37
ag37
ag37
ag37
ag37
ag37
ag37
ag37
ag37
ag37
ag37
ag37
ag37
ag37
ag37
ag37
ag37
ag37
ag37
ag37
ag37
ag37
ag37
ag37
ag37
ag37
ag37
ag37
ag37
ag37
ag37
ag37
ag37
ag37
ag37
ag37
ag37
ag37
ag37
ag37
ag37
ag37
ag37
ag37
ag37
ag37
ag37
ag37
ag37
ag37
ag37
ag37
ag37
ag37
ag37
ag37
ag37
ag37
ag37
ag37
ag37
ag37
ag37
ag37
ag37
ag37
ag37
ag37
ag37
ag37
ag37
ag37
ag37
ag37
ag37
ag37
ag37
ag37
ag37
ag37
ag37
ag37
ag37
ag37
ag37
ag37
ag37
ag37
ag37
ag37
ag37
ag37
ag37
ag37
ag37
ag37
ag37
ag37
ag37
ag37
ag37
ag37
ag37
ag37
ag37
ag37
ag37
ag37
ag37
ag37
ag37
ag37
ag37
ag37
ag37
ag37
ag37
ag37
ag37
ag37
ag37
ag37
ag37
ag37
ag37
ag37
ag37
ag37
ag37
ag37
ag37
ag37
ag37
ag37
ag37
ag37
ag37
ag37
ag37
ag37
ag37
ag37
ag37
ag37
ag37
ag37
ag37
ag37
ag37
ag37
ag37
ag37
ag37
ag37
ag37
ag37
ag37
ag37
ag37
ag37
ag37
ag37
ag37
ag37
ag37
ag37
ag37
ag37
ag37
ag37
ag37
ag37
ag37
ag37
ag37
ag37
ag37
ag37
ag37
ag37
ag37
ag37
ag37
ag37
ag37
ag37
ag37
ag37
ag37
ag37
ag37
ag37
ag37
ag37
ag37
ag37
ag37
ag37
ag37
ag37
ag37
ag37
ag37
ag37
ag37
ag37
ag37
ag37
ag37
ag37
ag37
ag37
ag37
ag37
ag37
ag37
ag37
ag37
ag37
ag37
ag37
ag37
ag37
ag37
ag37
ag37
ag37
ag37
ag37
ag37
ag37
ag37
ag37
ag37
ag37
ag37
ag37
ag37
ag37
ag37
ag37
ag37
ag37
ag37
ag37
ag37
ag37
ag37
ag37
ag37
ag37
ag37
ag37
ag37
ag37
ag37
ag37
ag37
ag37
ag37
ag37
ag37
ag37
ag37
ag37
ag37
ag37
ag37
ag37
ag37
ag37
ag37
ag37
ag37
ag37
ag37
ag37
ag37
ag37
ag37
ag37
ag37
ag37
ag37
ag37
ag37
ag37
ag37
ag37
ag37
ag37
ag37
ag37
ag37
ag37
ag37
ag37
ag37
ag37
ag37
ag37
ag37
ag37
ag37
ag37
ag37
ag37
ag37
ag37
ag37
ag37
ag37
ag37
ag37
ag37
ag37
ag37
ag37
ag37
ag37
ag37
ag37
ag37
ag37
ag37
ag37
ag37
ag37
ag37
ag37
ag37
ag37
ag37
ag37
ag37
ag37
ag37
ag37
ag37
ag37
ag37
ag37
ag37
ag37
ag37
ag37
ag37
ag37
ag37
ag37
ag37
ag37
ag37
ag37
ag37
ag37
ag37
ag37
ag37
ag37
ag37
ag37
ag37
ag37
ag37
ag37
ag37
ag37
ag37
ag37
ag37
ag37
ag37
ag37
ag37
ag37
ag37
ag37
ag37
ag37
ag37
ag37
ag37
ag37
ag37
ag37
ag37
ag37
ag37
ag37
ag37
ag37
ag37
ag37
ag37
ag37
ag37
aS'jim.piro@enron.com'
p38
ag38
ag38
ag38
ag38
ag38
ag38
ag38
ag38
ag38
ag38
ag38
ag38
ag38
ag38
ag38
aS'david.delainey@enron.com'
p39
ag39
ag39
ag39
ag39
ag39
ag39
ag39
ag39
ag39
ag39
ag39
ag39
ag39
ag39
ag39
ag39
ag39
ag39
ag39
ag39
ag39
ag39
ag39
ag39
ag39
ag39
ag39
ag39
ag39
ag39
ag39
ag39
ag39
ag39
ag39
ag39
ag39
ag39
ag39
ag39
ag39
ag39
ag39
ag39
ag39
ag39
ag39
ag39
ag39
ag39
ag39
ag39
ag39
ag39
ag39
ag39
ag39
ag39
ag39
ag39
ag39
ag39
ag39
ag39
ag39
ag39
ag39
ag39
ag39
ag39
ag39
ag39
ag39
ag39
ag39
ag39
ag39
ag39
ag39
ag39
ag39
ag39
ag39
ag39
ag39
ag39
ag39
ag39
ag39
ag39
ag39
ag39
ag39
ag39
ag39
ag39
ag39
ag39
ag39
ag39
ag39
ag39
ag39
ag39
ag39
ag39
ag39
ag39
ag39
ag39
ag39
ag39
ag39
ag39
ag39
ag39
ag39
ag39
ag39
ag39
ag39
ag39
ag39
ag39
ag39
ag39
ag39
ag39
ag39
ag39
ag39
ag39
ag39
ag39
ag39
ag39
ag39
ag39
ag39
ag39
ag39
ag39
ag39
ag39
ag39
ag39
ag39
ag39
ag39
ag39
ag39
ag39
ag39
ag39
ag39
ag39
ag39
ag39
ag39
ag39
ag39
ag39
ag39
ag39
ag39
ag39
ag39
ag39
ag39
ag39
ag39
ag39
ag39
ag39
ag39
ag39
ag39
ag39
ag39
ag39
ag39
ag39
ag39
ag39
ag39
ag39
ag39
ag39
ag39
ag39
ag39
ag39
ag39
ag39
ag39
ag39
ag39
ag39
ag39
ag39
ag39
ag39
ag39
ag39
ag39
ag39
ag39
ag39
ag39
ag39
ag39
ag39
ag39
ag39
ag39
ag39
ag39
ag39
ag39
ag39
ag39
ag39
ag39
ag39
ag39
ag39
ag39
ag39
ag39
ag39
ag39
ag39
ag39
ag39
ag39
ag39
ag39
ag39
ag39
ag39
ag39
ag39
ag39
ag39
ag39
ag39
ag39
ag39
ag39
ag39
ag39
ag39
ag39
ag39
ag39
ag39
ag39
ag39
ag39
ag39
ag39
ag39
ag39
ag39
ag39
ag39
ag39
ag39
ag39
ag39
ag39
ag39
ag39
ag39
ag39
ag39
ag39
ag39
ag39
ag39
ag39
ag39
ag39
ag39
ag39
ag39
ag39
ag39
ag39
ag39
ag39
ag39
ag39
ag39
ag39
ag39
ag39
ag39
ag39
ag39
ag39
ag39
ag39
ag39
ag39
ag39
ag39
ag39
ag39
ag39
ag39
ag39
ag39
ag39
ag39
ag39
ag39
ag39
ag39
ag39
ag39
ag39
ag39
ag39
ag39
ag39
ag39
ag39
ag39
ag39
ag39
ag39
ag39
ag39
ag39
ag39
ag39
ag39
ag39
ag39
ag39
ag39
ag39
ag39
ag39
ag39
ag39
ag39
ag39
ag39
ag39
ag39
ag39
ag39
ag39
ag39
ag39
ag39
ag39
ag39
ag39
ag39
ag39
ag39
ag39
ag39
ag39
ag39
ag39
ag39
ag39
ag39
ag39
ag39
ag39
ag39
ag39
ag39
ag39
ag39
ag39
ag39
ag39
ag39
ag39
ag39
ag39
ag39
ag39
ag39
ag39
ag39
ag39
ag39
ag39
ag39
ag39
ag39
ag39
ag39
ag39
ag39
ag39
ag39
ag39
ag39
ag39
ag39
ag39
ag39
ag39
ag39
ag39
ag39
ag39
ag39
ag39
ag39
ag39
ag39
ag39
ag39
ag39
ag39
ag39
ag39
ag39
ag39
ag39
ag39
ag39
ag39
ag39
ag39
ag39
ag39
ag39
ag39
ag39
ag39
ag39
ag39
ag39
ag39
ag39
ag39
ag39
ag39
ag39
ag39
ag39
ag39
ag39
ag39
ag39
ag39
ag39
ag39
ag39
ag39
ag39
ag39
ag39
ag39
ag39
ag39
ag39
ag39
ag39
ag39
ag39
ag39
ag39
ag39
ag39
ag39
ag39
ag39
ag39
ag39
ag39
ag39
ag39
ag39
ag39
ag39
ag39
ag39
ag39
ag39
ag39
ag39
ag39
ag39
ag39
ag39
ag39
ag39
ag39
ag39
ag39
ag39
ag39
ag39
ag39
ag39
ag39
ag39
ag39
ag39
ag39
ag39
ag39
ag39
ag39
ag39
ag39
ag39
ag39
ag39
ag39
ag39
ag39
ag39
ag39
ag39
ag39
ag39
ag39
ag39
ag39
ag39
ag39
ag39
ag39
ag39
ag39
ag39
ag39
ag39
ag39
ag39
ag39
ag39
ag39
ag39
ag39
ag39
ag39
ag39
ag39
ag39
ag39
ag39
ag39
ag39
ag39
ag39
ag39
ag39
ag39
ag39
ag39
ag39
ag39
ag39
ag39
ag39
ag39
ag39
ag39
ag39
ag39
ag39
ag39
ag39
ag39
ag39
ag39
ag39
ag39
ag39
ag39
ag39
ag39
ag39
ag39
ag39
ag39
ag39
ag39
ag39
ag39
ag39
ag39
ag39
ag39
ag39
ag39
ag39
ag39
ag39
ag39
ag39
ag39
ag39
ag39
ag39
ag39
ag39
ag39
ag39
ag39
ag39
ag39
ag39
ag39
ag39
ag39
ag39
ag39
ag39
ag39
ag39
ag39
ag39
ag39
ag39
ag39
ag39
ag39
ag39
ag39
ag39
ag39
ag39
ag39
ag39
ag39
ag39
ag39
ag39
ag39
ag39
ag39
ag39
ag39
ag39
ag39
ag39
ag39
ag39
ag39
ag39
ag39
ag39
ag39
ag39
ag39
ag39
ag39
ag39
ag39
ag39
ag39
ag39
ag39
ag39
ag39
ag39
ag39
ag39
ag39
ag39
ag39
ag39
ag39
ag39
ag39
ag39
ag39
ag39
ag39
ag39
ag39
ag39
ag39
ag39
ag39
ag39
ag39
ag39
ag39
ag39
ag39
ag39
ag39
ag39
ag39
ag39
ag39
ag39
ag39
ag39
ag39
ag39
ag39
ag39
ag39
ag39
ag39
ag39
ag39
ag39
ag39
ag39
ag39
ag39
ag39
ag39
ag39
ag39
ag39
ag39
ag39
ag39
ag39
ag39
ag39
ag39
ag39
ag39
ag39
ag39
ag39
ag39
ag39
ag39
ag39
ag39
ag39
ag39
ag39
ag39
ag39
ag39
ag39
ag39
ag39
ag39
ag39
ag39
ag39
ag39
ag39
ag39
ag39
ag39
ag39
ag39
ag39
ag39
ag39
ag39
ag39
ag39
ag39
ag39
ag39
ag39
ag39
ag39
ag39
ag39
ag39
ag39
ag39
ag39
ag39
ag39
ag39
ag39
ag39
ag39
ag39
ag39
ag39
ag39
ag39
ag39
ag39
ag39
ag39
ag39
ag39
ag39
ag39
ag39
ag39
ag39
ag39
ag39
ag39
ag39
ag39
ag39
ag39
ag39
ag39
ag39
ag39
ag39
ag39
ag39
ag39
ag39
ag39
ag39
ag39
ag39
ag39
ag39
ag39
ag39
ag39
ag39
ag39
ag39
ag39
aS'kenneth.lay@enron.com'
p40
ag40
ag40
ag40
ag40
ag40
ag40
ag40
ag40
ag40
ag40
ag40
ag40
ag40
ag40
ag40
ag40
ag40
ag40
ag40
ag40
ag40
ag40
ag40
ag40
ag40
ag40
ag40
ag40
ag40
ag40
ag40
aS'cindy.olson@enron.com'
p41
ag41
ag41
ag41
ag41
ag41
ag41
ag41
ag41
ag41
ag41
ag41
ag41
ag41
ag41
ag41
ag41
ag41
ag41
ag41
ag41
ag41
ag41
ag41
ag41
ag41
ag41
ag41
ag41
ag41
aS'rebecca.mcdonald@enron.com'
p42
ag42
ag42
ag42
ag42
aS'george.mcclellan@enron.com'
p43
ag43
ag43
ag43
ag43
ag43
ag43
ag43
ag43
ag43
ag43
ag43
ag43
ag43
ag43
ag43
ag43
ag43
ag43
ag43
ag43
ag43
ag43
ag43
ag43
ag43
ag43
ag43
aS'mark.haedicke@enron.com'
p44
ag44
ag44
ag44
ag44
ag44
ag44
ag44
ag44
ag44
ag44
ag44
ag44
ag44
ag44
ag44
ag44
ag44
ag44
ag44
ag44
ag44
ag44
ag44
ag44
ag44
ag44
ag44
ag44
ag44
ag44
ag44
ag44
ag44
ag44
ag44
ag44
ag44
ag44
ag44
ag44
ag44
ag44
ag44
ag44
ag44
ag44
ag44
ag44
ag44
ag44
ag44
ag44
ag44
ag44
ag44
ag44
ag44
ag44
ag44
ag44
ag44
ag44
ag44
ag44
ag44
ag44
ag44
ag44
ag44
ag44
ag44
ag44
ag44
ag44
ag44
ag44
ag44
ag44
ag44
ag44
ag44
ag44
ag44
ag44
ag44
ag44
ag44
ag44
ag44
ag44
ag44
ag44
ag44
ag44
ag44
ag44
ag44
ag44
ag44
ag44
ag44
ag44
ag44
ag44
ag44
ag44
ag44
ag44
ag44
ag44
ag44
ag44
ag44
ag44
ag44
ag44
ag44
ag44
ag44
ag44
ag44
ag44
ag44
ag44
ag44
ag44
ag44
ag44
ag44
ag44
ag44
ag44
ag44
ag44
ag44
ag44
ag44
ag44
ag44
ag44
ag44
ag44
ag44
ag44
ag44
ag44
ag44
ag44
ag44
ag44
ag44
ag44
ag44
ag44
ag44
ag44
ag44
ag44
ag44
ag44
ag44
ag44
ag44
ag44
ag44
ag44
ag44
ag44
ag44
ag44
ag44
ag44
ag44
ag44
ag44
ag44
ag44
ag44
ag44
ag44
ag44
ag44
ag44
ag44
ag44
ag44
ag44
ag44
ag44
ag44
ag44
ag44
ag44
ag44
ag44
ag44
ag44
ag44
ag44
ag44
ag44
ag44
ag44
ag44
ag44
ag44
ag44
ag44
ag44
ag44
ag44
ag44
ag44
ag44
ag44
ag44
ag44
ag44
ag44
ag44
ag44
ag44
ag44
ag44
ag44
ag44
ag44
ag44
ag44
ag44
ag44
ag44
ag44
ag44
ag44
ag44
ag44
ag44
ag44
ag44
ag44
ag44
ag44
ag44
ag44
ag44
ag44
ag44
ag44
ag44
ag44
ag44
ag44
ag44
ag44
ag44
ag44
ag44
ag44
ag44
ag44
ag44
ag44
ag44
ag44
ag44
ag44
ag44
ag44
ag44
ag44
ag44
ag44
ag44
ag44
ag44
ag44
ag44
ag44
ag44
ag44
ag44
ag44
ag44
ag44
ag44
ag44
ag44
ag44
ag44
ag44
ag44
ag44
ag44
ag44
ag44
ag44
ag44
ag44
ag44
ag44
ag44
ag44
ag44
ag44
ag44
ag44
ag44
ag44
ag44
ag44
ag44
ag44
ag44
ag44
ag44
ag44
ag44
ag44
ag44
ag44
ag44
ag44
ag44
ag44
ag44
ag44
ag44
ag44
ag44
ag44
ag44
ag44
ag44
ag44
ag44
ag44
ag44
ag44
ag44
ag44
ag44
ag44
ag44
ag44
ag44
ag44
ag44
ag44
ag44
ag44
ag44
ag44
ag44
ag44
ag44
ag44
ag44
ag44
ag44
ag44
ag44
ag44
ag44
ag44
ag44
ag44
ag44
ag44
ag44
ag44
ag44
ag44
ag44
ag44
ag44
ag44
ag44
ag44
ag44
ag44
ag44
ag44
ag44
ag44
ag44
ag44
ag44
ag44
ag44
ag44
ag44
ag44
ag44
ag44
ag44
ag44
ag44
ag44
ag44
ag44
ag44
ag44
ag44
ag44
ag44
ag44
ag44
ag44
ag44
ag44
ag44
ag44
ag44
ag44
ag44
ag44
ag44
ag44
ag44
ag44
ag44
ag44
ag44
ag44
ag44
ag44
ag44
ag44
ag44
ag44
ag44
ag44
ag44
ag44
ag44
ag44
ag44
ag44
ag44
ag44
ag44
ag44
ag44
ag44
ag44
ag44
ag44
ag44
ag44
ag44
ag44
ag44
ag44
ag44
ag44
ag44
ag44
ag44
ag44
ag44
ag44
ag44
ag44
ag44
ag44
ag44
ag44
ag44
ag44
ag44
ag44
ag44
ag44
ag44
ag44
ag44
ag44
ag44
ag44
ag44
ag44
ag44
ag44
ag44
ag44
ag44
ag44
ag44
ag44
ag44
ag44
ag44
ag44
ag44
ag44
ag44
ag44
ag44
ag44
ag44
ag44
ag44
ag44
ag44
ag44
ag44
ag44
ag44
ag44
ag44
ag44
ag44
ag44
ag44
ag44
ag44
ag44
ag44
ag44
ag44
ag44
ag44
ag44
ag44
ag44
ag44
ag44
ag44
ag44
ag44
ag44
ag44
ag44
ag44
ag44
ag44
ag44
ag44
ag44
ag44
ag44
ag44
ag44
ag44
ag44
ag44
ag44
ag44
ag44
ag44
ag44
ag44
ag44
ag44
ag44
ag44
ag44
ag44
ag44
ag44
ag44
ag44
ag44
ag44
ag44
ag44
ag44
ag44
ag44
ag44
ag44
ag44
ag44
ag44
ag44
ag44
ag44
ag44
ag44
ag44
ag44
ag44
ag44
ag44
ag44
ag44
ag44
ag44
ag44
ag44
ag44
ag44
ag44
ag44
ag44
ag44
ag44
ag44
ag44
ag44
ag44
ag44
ag44
ag44
ag44
ag44
ag44
ag44
ag44
ag44
ag44
ag44
ag44
ag44
ag44
ag44
ag44
ag44
ag44
ag44
ag44
ag44
ag44
ag44
ag44
ag44
ag44
ag44
ag44
ag44
ag44
ag44
ag44
ag44
ag44
ag44
ag44
ag44
ag44
ag44
ag44
ag44
ag44
ag44
ag44
ag44
ag44
ag44
ag44
ag44
ag44
ag44
ag44
ag44
ag44
ag44
ag44
ag44
ag44
ag44
ag44
ag44
ag44
ag44
ag44
ag44
ag44
ag44
ag44
ag44
ag44
ag44
ag44
ag44
ag44
ag44
ag44
ag44
ag44
ag44
ag44
ag44
ag44
ag44
ag44
ag44
ag44
ag44
ag44
ag44
ag44
ag44
ag44
ag44
ag44
ag44
ag44
ag44
ag44
ag44
ag44
ag44
ag44
ag44
ag44
ag44
ag44
ag44
ag44
ag44
ag44
ag44
ag44
ag44
ag44
ag44
ag44
ag44
ag44
ag44
ag44
ag44
ag44
ag44
ag44
ag44
ag44
ag44
ag44
ag44
ag44
ag44
ag44
ag44
ag44
ag44
ag44
ag44
ag44
ag44
ag44
ag44
ag44
ag44
ag44
ag44
ag44
ag44
ag44
ag44
ag44
ag44
ag44
ag44
ag44
ag44
ag44
ag44
ag44
ag44
ag44
ag44
ag44
ag44
ag44
ag44
ag44
ag44
ag44
ag44
ag44
ag44
ag44
ag44
ag44
ag44
ag44
ag44
ag44
ag44
ag44
ag44
ag44
ag44
ag44
ag44
ag44
ag44
ag44
ag44
ag44
ag44
ag44
ag44
ag44
ag44
ag44
ag44
ag44
ag44
ag44
ag44
ag44
ag44
ag44
ag44
ag44
ag44
ag44
ag44
ag44
ag44
ag44
ag44
ag44
ag44
ag44
ag44
ag44
ag44
ag44
ag44
ag44
ag44
ag44
ag44
ag44
ag44
ag44
ag44
ag44
ag44
ag44
ag44
ag44
ag44
ag44
ag44
ag44
ag44
ag44
ag44
ag44
ag44
ag44
ag44
ag44
ag44
ag44
ag44
ag44
ag44
ag44
ag44
ag44
ag44
ag44
ag44
ag44
ag44
ag44
ag44
ag44
ag44
ag44
ag44
ag44
ag44
ag44
ag44
ag44
ag44
ag44
ag44
ag44
ag44
ag44
ag44
ag44
ag44
ag44
ag44
ag44
ag44
ag44
ag44
ag44
ag44
ag44
ag44
ag44
ag44
ag44
ag44
ag44
ag44
ag44
ag44
ag44
ag44
ag44
ag44
ag44
ag44
ag44
ag44
ag44
ag44
ag44
ag44
ag44
ag44
ag44
ag44
ag44
ag44
ag44
ag44
ag44
ag44
ag44
ag44
ag44
ag44
ag44
ag44
ag44
ag44
ag44
ag44
ag44
ag44
ag44
ag44
ag44
ag44
ag44
ag44
ag44
ag44
ag44
ag44
ag44
ag44
ag44
ag44
ag44
ag44
ag44
ag44
ag44
ag44
ag44
ag44
ag44
ag44
ag44
ag44
ag44
ag44
ag44
ag44
ag44
ag44
ag44
aS'raymond.bowen@enron.com'
p45
ag45
ag45
ag45
ag45
ag45
ag45
ag45
ag45
ag45
ag45
ag45
ag45
ag45
ag45
ag45
ag45
ag45
ag45
ag45
ag45
ag45
ag45
aS'jay.fitzgerald@enron.com'
p46
ag46
ag46
ag46
ag46
ag46
ag46
ag46
aS'michael.moran@enron.com'
p47
ag47
ag47
ag47
ag47
ag47
ag47
aS'brian.redmond@enron.com'
p48
ag48
ag48
ag48
ag48
ag48
ag48
ag48
ag48
ag48
ag48
ag48
ag48
ag48
ag48
ag48
ag48
ag48
ag48
ag48
ag48
ag48
ag48
ag48
ag48
ag48
ag48
ag48
ag48
ag48
ag48
ag48
ag48
ag48
ag48
ag48
ag48
ag48
ag48
ag48
ag48
ag48
ag48
ag48
ag48
ag48
ag48
ag48
ag48
ag48
ag48
ag48
ag48
ag48
ag48
ag48
ag48
ag48
ag48
ag48
ag48
ag48
ag48
ag48
ag48
ag48
ag48
ag48
ag48
ag48
ag48
ag48
ag48
ag48
ag48
ag48
ag48
ag48
ag48
ag48
ag48
ag48
ag48
ag48
ag48
ag48
ag48
ag48
ag48
ag48
ag48
ag48
ag48
ag48
ag48
ag48
ag48
ag48
ag48
ag48
ag48
ag48
ag48
ag48
ag48
ag48
ag48
ag48
ag48
ag48
ag48
ag48
ag48
ag48
ag48
ag48
ag48
ag48
ag48
ag48
ag48
ag48
ag48
ag48
ag48
ag48
ag48
ag48
ag48
ag48
ag48
ag48
ag48
ag48
ag48
ag48
ag48
ag48
ag48
ag48
ag48
ag48
ag48
ag48
ag48
ag48
ag48
ag48
ag48
ag48
ag48
ag48
ag48
ag48
ag48
ag48
ag48
ag48
ag48
ag48
ag48
ag48
ag48
ag48
ag48
ag48
ag48
ag48
ag48
ag48
ag48
aS'tim.belden@enron.com'
p49
ag49
ag49
ag49
ag49
ag49
ag49
ag49
ag49
ag49
ag49
ag49
ag49
ag49
ag49
ag49
ag49
ag49
ag49
ag49
ag49
ag49
ag49
ag49
ag49
ag49
ag49
ag49
ag49
ag49
ag49
ag49
ag49
ag49
ag49
ag49
ag49
ag49
ag49
ag49
ag49
ag49
ag49
ag49
ag49
ag49
ag49
ag49
ag49
ag49
ag49
ag49
ag49
ag49
ag49
ag49
ag49
ag49
ag49
ag49
ag49
ag49
ag49
ag49
ag49
ag49
ag49
ag49
ag49
ag49
ag49
ag49
ag49
ag49
ag49
ag49
ag49
ag49
ag49
ag49
ag49
ag49
ag49
ag49
ag49
ag49
ag49
ag49
ag49
ag49
ag49
ag49
ag49
ag49
ag49
ag49
ag49
ag49
ag49
ag49
ag49
ag49
ag49
ag49
ag49
ag49
ag49
ag49
ag49
ag49
ag49
ag49
ag49
ag49
ag49
ag49
ag49
ag49
ag49
ag49
ag49
ag49
ag49
ag49
ag49
ag49
ag49
ag49
ag49
ag49
ag49
ag49
ag49
ag49
ag49
ag49
ag49
ag49
ag49
ag49
ag49
ag49
ag49
ag49
ag49
ag49
ag49
ag49
ag49
ag49
ag49
ag49
ag49
ag49
ag49
ag49
ag49
ag49
ag49
ag49
ag49
ag49
ag49
ag49
ag49
ag49
ag49
ag49
ag49
ag49
ag49
ag49
ag49
ag49
ag49
ag49
ag49
ag49
ag49
ag49
ag49
ag49
ag49
ag49
ag49
ag49
ag49
ag49
ag49
ag49
ag49
ag49
ag49
ag49
ag49
ag49
ag49
ag49
ag49
ag49
ag49
ag49
ag49
ag49
ag49
ag49
ag49
ag49
ag49
ag49
ag49
ag49
ag49
ag49
ag49
ag49
ag49
ag49
ag49
ag49
ag49
ag49
ag49
ag49
ag49
ag49
ag49
ag49
ag49
ag49
ag49
ag49
ag49
ag49
ag49
ag49
ag49
ag49
ag49
ag49
ag49
ag49
ag49
ag49
ag49
ag49
ag49
ag49
ag49
ag49
ag49
ag49
ag49
ag49
ag49
ag49
ag49
ag49
ag49
ag49
ag49
ag49
ag49
ag49
ag49
ag49
ag49
ag49
ag49
ag49
ag49
ag49
ag49
ag49
ag49
ag49
ag49
ag49
ag49
ag49
ag49
ag49
ag49
ag49
ag49
ag49
ag49
ag49
ag49
ag49
ag49
ag49
ag49
ag49
ag49
ag49
ag49
ag49
ag49
ag49
ag49
ag49
ag49
ag49
ag49
ag49
ag49
ag49
ag49
ag49
ag49
ag49
ag49
ag49
ag49
ag49
ag49
ag49
ag49
ag49
ag49
ag49
ag49
ag49
ag49
ag49
ag49
ag49
ag49
ag49
ag49
ag49
ag49
ag49
ag49
ag49
ag49
ag49
ag49
ag49
ag49
ag49
ag49
ag49
ag49
ag49
ag49
ag49
ag49
ag49
ag49
ag49
ag49
ag49
ag49
ag49
aS'w.duran@enron.com'
p50
ag50
ag50
ag50
ag50
ag50
ag50
ag50
ag50
ag50
aS'terence.thorn@enron.com'
p51
ag51
ag51
ag51
ag51
ag51
ag51
ag51
ag51
aS'tracy.foy@enron.com'
p52
ag52
ag52
ag52
ag52
aS'christopher.calger@enron.com'
p53
ag53
ag53
ag53
ag53
ag53
ag53
ag53
ag53
ag53
ag53
ag53
ag53
ag53
ag53
ag53
ag53
ag53
ag53
ag53
ag53
ag53
ag53
ag53
ag53
ag53
ag53
ag53
ag53
ag53
ag53
ag53
ag53
ag53
ag53
ag53
ag53
ag53
ag53
ag53
ag53
ag53
ag53
ag53
ag53
ag53
ag53
ag53
ag53
ag53
ag53
ag53
ag53
ag53
ag53
ag53
ag53
ag53
ag53
ag53
ag53
ag53
ag53
ag53
ag53
ag53
ag53
ag53
ag53
ag53
ag53
ag53
ag53
ag53
ag53
ag53
ag53
ag53
ag53
ag53
ag53
ag53
ag53
ag53
ag53
ag53
ag53
ag53
ag53
ag53
ag53
ag53
ag53
ag53
ag53
ag53
ag53
ag53
ag53
ag53
ag53
ag53
ag53
ag53
ag53
ag53
ag53
ag53
ag53
aS'ken.rice@enron.com'
p54
ag54
ag54
ag54
ag54
ag54
ag54
ag54
ag54
aS'vince.kaminski@enron.com'
p55
ag55
ag55
ag55
ag55
ag55
ag55
ag55
ag55
ag55
ag55
ag55
ag55
ag55
ag55
ag55
ag55
ag55
ag55
ag55
ag55
ag55
ag55
ag55
ag55
ag55
ag55
ag55
ag55
ag55
ag55
ag55
ag55
ag55
ag55
ag55
ag55
ag55
ag55
ag55
ag55
ag55
ag55
ag55
ag55
ag55
ag55
ag55
ag55
ag55
ag55
ag55
ag55
ag55
ag55
ag55
ag55
ag55
ag55
ag55
ag55
ag55
ag55
ag55
ag55
ag55
ag55
ag55
ag55
ag55
ag55
ag55
ag55
ag55
ag55
ag55
ag55
ag55
ag55
ag55
ag55
ag55
ag55
ag55
ag55
ag55
ag55
ag55
ag55
ag55
ag55
ag55
ag55
ag55
ag55
ag55
ag55
ag55
ag55
ag55
ag55
ag55
ag55
ag55
ag55
ag55
ag55
ag55
ag55
ag55
ag55
ag55
ag55
ag55
ag55
ag55
ag55
ag55
ag55
ag55
ag55
ag55
ag55
ag55
ag55
ag55
ag55
ag55
ag55
ag55
ag55
ag55
ag55
ag55
ag55
ag55
ag55
ag55
ag55
ag55
ag55
ag55
ag55
ag55
ag55
ag55
ag55
ag55
ag55
ag55
ag55
ag55
ag55
ag55
ag55
ag55
ag55
ag55
ag55
ag55
ag55
ag55
ag55
ag55
ag55
ag55
ag55
ag55
ag55
ag55
ag55
ag55
ag55
ag55
ag55
ag55
ag55
ag55
ag55
ag55
ag55
ag55
ag55
ag55
ag55
ag55
ag55
ag55
ag55
ag55
ag55
ag55
ag55
ag55
ag55
ag55
ag55
ag55
ag55
ag55
ag55
ag55
ag55
ag55
ag55
ag55
ag55
ag55
ag55
ag55
ag55
ag55
ag55
ag55
ag55
ag55
ag55
ag55
ag55
ag55
ag55
ag55
ag55
ag55
ag55
ag55
ag55
ag55
ag55
ag55
ag55
ag55
ag55
ag55
ag55
ag55
ag55
ag55
ag55
ag55
ag55
ag55
ag55
ag55
ag55
ag55
ag55
ag55
ag55
ag55
ag55
ag55
ag55
ag55
ag55
ag55
ag55
ag55
ag55
ag55
ag55
ag55
ag55
ag55
ag55
ag55
ag55
ag55
ag55
ag55
ag55
ag55
ag55
ag55
ag55
ag55
ag55
ag55
ag55
ag55
ag55
ag55
ag55
ag55
ag55
ag55
ag55
ag55
ag55
ag55
ag55
ag55
ag55
ag55
ag55
ag55
ag55
ag55
ag55
ag55
ag55
ag55
ag55
ag55
ag55
ag55
ag55
ag55
ag55
ag55
ag55
ag55
ag55
ag55
ag55
ag55
ag55
ag55
ag55
ag55
ag55
ag55
ag55
ag55
ag55
ag55
ag55
ag55
ag55
ag55
ag55
ag55
ag55
ag55
ag55
ag55
ag55
ag55
ag55
ag55
ag55
ag55
ag55
ag55
ag55
ag55
ag55
ag55
ag55
ag55
ag55
ag55
ag55
ag55
ag55
ag55
ag55
ag55
ag55
ag55
ag55
ag55
ag55
ag55
ag55
ag55
ag55
ag55
ag55
ag55
ag55
ag55
ag55
ag55
ag55
ag55
ag55
ag55
ag55
ag55
ag55
ag55
ag55
ag55
ag55
ag55
ag55
ag55
ag55
ag55
ag55
ag55
ag55
ag55
ag55
ag55
ag55
ag55
ag55
ag55
ag55
ag55
ag55
ag55
ag55
ag55
ag55
ag55
ag55
ag55
ag55
ag55
ag55
ag55
ag55
ag55
ag55
ag55
ag55
ag55
ag55
ag55
ag55
ag55
ag55
ag55
ag55
ag55
ag55
ag55
ag55
ag55
ag55
ag55
ag55
ag55
ag55
ag55
ag55
ag55
ag55
ag55
ag55
ag55
ag55
ag55
ag55
ag55
ag55
ag55
ag55
ag55
ag55
ag55
ag55
ag55
ag55
ag55
ag55
ag55
ag55
ag55
ag55
ag55
ag55
ag55
ag55
ag55
ag55
ag55
ag55
ag55
ag55
ag55
ag55
ag55
ag55
ag55
ag55
ag55
ag55
ag55
ag55
ag55
ag55
ag55
ag55
ag55
ag55
ag55
ag55
ag55
ag55
ag55
ag55
ag55
ag55
ag55
ag55
ag55
ag55
ag55
ag55
ag55
ag55
ag55
ag55
ag55
ag55
ag55
ag55
ag55
ag55
ag55
ag55
ag55
ag55
ag55
ag55
ag55
ag55
ag55
ag55
ag55
ag55
ag55
ag55
ag55
ag55
ag55
ag55
ag55
ag55
ag55
ag55
ag55
ag55
ag55
ag55
ag55
ag55
ag55
ag55
ag55
ag55
ag55
ag55
ag55
ag55
ag55
ag55
ag55
ag55
ag55
ag55
ag55
ag55
ag55
ag55
ag55
ag55
ag55
ag55
ag55
ag55
ag55
ag55
ag55
ag55
ag55
ag55
ag55
ag55
ag55
ag55
ag55
ag55
ag55
ag55
ag55
ag55
ag55
ag55
ag55
ag55
ag55
ag55
ag55
ag55
ag55
ag55
ag55
ag55
ag55
ag55
ag55
ag55
ag55
ag55
ag55
ag55
ag55
ag55
ag55
ag55
ag55
ag55
ag55
ag55
ag55
ag55
ag55
ag55
ag55
ag55
ag55
ag55
ag55
ag55
ag55
ag55
ag55
ag55
ag55
ag55
ag55
ag55
ag55
ag55
ag55
ag55
ag55
ag55
ag55
ag55
ag55
ag55
ag55
ag55
ag55
ag55
ag55
ag55
ag55
ag55
ag55
ag55
ag55
ag55
ag55
ag55
ag55
ag55
ag55
ag55
ag55
ag55
ag55
ag55
ag55
ag55
ag55
ag55
ag55
ag55
ag55
ag55
ag55
ag55
ag55
ag55
ag55
ag55
ag55
ag55
ag55
ag55
ag55
ag55
ag55
ag55
ag55
ag55
ag55
ag55
ag55
ag55
ag55
ag55
ag55
ag55
ag55
ag55
ag55
ag55
ag55
ag55
ag55
ag55
ag55
ag55
ag55
ag55
ag55
ag55
ag55
ag55
ag55
ag55
ag55
ag55
ag55
ag55
ag55
ag55
ag55
ag55
ag55
ag55
ag55
ag55
ag55
ag55
ag55
ag55
ag55
ag55
ag55
ag55
ag55
ag55
ag55
ag55
ag55
ag55
ag55
ag55
ag55
ag55
ag55
ag55
ag55
ag55
ag55
ag55
ag55
ag55
ag55
ag55
ag55
ag55
ag55
ag55
ag55
ag55
ag55
ag55
ag55
ag55
ag55
ag55
ag55
ag55
ag55
ag55
ag55
ag55
ag55
ag55
ag55
ag55
ag55
ag55
ag55
ag55
ag55
ag55
ag55
ag55
ag55
ag55
ag55
ag55
ag55
ag55
ag55
ag55
ag55
ag55
ag55
ag55
ag55
ag55
ag55
ag55
ag55
ag55
ag55
ag55
ag55
ag55
ag55
ag55
ag55
ag55
ag55
ag55
ag55
ag55
ag55
ag55
ag55
ag55
ag55
ag55
ag55
ag55
ag55
ag55
ag55
ag55
ag55
ag55
ag55
ag55
ag55
ag55
ag55
ag55
ag55
ag55
ag55
ag55
ag55
ag55
ag55
ag55
ag55
ag55
ag55
ag55
ag55
ag55
ag55
ag55
ag55
ag55
ag55
ag55
ag55
ag55
ag55
ag55
ag55
ag55
ag55
ag55
ag55
ag55
ag55
ag55
ag55
ag55
ag55
ag55
ag55
ag55
ag55
ag55
ag55
ag55
ag55
ag55
ag55
ag55
ag55
ag55
ag55
ag55
ag55
ag55
ag55
ag55
ag55
ag55
ag55
ag55
ag55
ag55
ag55
ag55
ag55
ag55
ag55
ag55
ag55
ag55
ag55
ag55
ag55
ag55
ag55
ag55
ag55
ag55
ag55
ag55
ag55
ag55
ag55
ag55
ag55
ag55
ag55
ag55
ag55
ag55
ag55
ag55
ag55
ag55
ag55
ag55
ag55
ag55
ag55
ag55
ag55
ag55
ag55
ag55
ag55
ag55
ag55
ag55
ag55
ag55
ag55
ag55
ag55
ag55
ag55
ag55
ag55
ag55
ag55
ag55
ag55
ag55
ag55
ag55
ag55
ag55
ag55
ag55
ag55
ag55
ag55
ag55
ag55
ag55
ag55
ag55
ag55
ag55
ag55
ag55
ag55
ag55
ag55
ag55
ag55
ag55
ag55
ag55
ag55
ag55
ag55
ag55
ag55
ag55
ag55
ag55
ag55
ag55
ag55
ag55
ag55
ag55
ag55
ag55
ag55
ag55
ag55
ag55
ag55
ag55
ag55
ag55
ag55
ag55
ag55
ag55
ag55
ag55
ag55
ag55
ag55
ag55
ag55
ag55
ag55
ag55
ag55
ag55
ag55
ag55
ag55
ag55
ag55
ag55
ag55
ag55
ag55
ag55
ag55
ag55
ag55
ag55
ag55
ag55
ag55
ag55
ag55
ag55
ag55
ag55
ag55
ag55
ag55
ag55
ag55
ag55
ag55
ag55
ag55
ag55
ag55
ag55
ag55
ag55
ag55
ag55
ag55
ag55
ag55
ag55
ag55
ag55
ag55
ag55
ag55
ag55
ag55
ag55
ag55
ag55
ag55
ag55
ag55
ag55
ag55
ag55
ag55
ag55
ag55
ag55
ag55
ag55
ag55
ag55
ag55
ag55
ag55
ag55
ag55
ag55
ag55
ag55
ag55
ag55
ag55
ag55
ag55
ag55
ag55
ag55
ag55
ag55
ag55
ag55
ag55
ag55
ag55
ag55
ag55
ag55
ag55
ag55
ag55
ag55
ag55
ag55
ag55
ag55
ag55
ag55
ag55
ag55
ag55
ag55
ag55
ag55
ag55
ag55
ag55
ag55
ag55
ag55
ag55
ag55
ag55
ag55
ag55
ag55
ag55
ag55
ag55
ag55
ag55
ag55
ag55
ag55
ag55
ag55
ag55
ag55
ag55
ag55
ag55
ag55
ag55
ag55
ag55
ag55
ag55
ag55
ag55
ag55
ag55
ag55
ag55
ag55
ag55
ag55
ag55
ag55
ag55
ag55
ag55
ag55
ag55
ag55
ag55
ag55
ag55
ag55
ag55
ag55
ag55
ag55
ag55
ag55
ag55
ag55
ag55
ag55
ag55
ag55
ag55
ag55
ag55
ag55
ag55
ag55
ag55
ag55
ag55
ag55
ag55
ag55
ag55
ag55
ag55
ag55
ag55
ag55
ag55
ag55
ag55
ag55
ag55
ag55
ag55
ag55
ag55
ag55
ag55
ag55
ag55
ag55
ag55
ag55
ag55
ag55
ag55
ag55
ag55
ag55
ag55
ag55
ag55
ag55
ag55
ag55
ag55
ag55
ag55
ag55
ag55
ag55
ag55
ag55
ag55
ag55
ag55
ag55
ag55
ag55
ag55
ag55
ag55
ag55
ag55
ag55
ag55
ag55
ag55
ag55
ag55
ag55
ag55
ag55
ag55
ag55
ag55
ag55
ag55
ag55
ag55
ag55
ag55
ag55
ag55
ag55
ag55
ag55
ag55
ag55
ag55
ag55
ag55
ag55
ag55
ag55
ag55
ag55
ag55
ag55
ag55
ag55
ag55
ag55
ag55
ag55
ag55
ag55
ag55
ag55
ag55
ag55
ag55
ag55
ag55
ag55
ag55
ag55
ag55
ag55
ag55
ag55
ag55
ag55
ag55
ag55
ag55
ag55
ag55
ag55
ag55
ag55
ag55
ag55
ag55
ag55
ag55
ag55
ag55
ag55
ag55
ag55
ag55
ag55
ag55
ag55
ag55
ag55
ag55
ag55
ag55
ag55
ag55
ag55
ag55
ag55
ag55
ag55
ag55
ag55
ag55
ag55
ag55
ag55
ag55
ag55
ag55
ag55
ag55
ag55
ag55
ag55
ag55
ag55
ag55
ag55
ag55
ag55
ag55
ag55
ag55
ag55
ag55
ag55
ag55
ag55
ag55
ag55
ag55
ag55
ag55
ag55
ag55
ag55
ag55
ag55
ag55
ag55
ag55
ag55
ag55
ag55
ag55
ag55
ag55
ag55
ag55
ag55
ag55
ag55
ag55
ag55
ag55
ag55
ag55
ag55
ag55
ag55
ag55
ag55
ag55
ag55
ag55
ag55
ag55
ag55
ag55
ag55
ag55
ag55
ag55
ag55
ag55
ag55
ag55
ag55
ag55
ag55
ag55
ag55
ag55
ag55
ag55
ag55
ag55
ag55
ag55
ag55
ag55
ag55
ag55
ag55
ag55
ag55
ag55
ag55
ag55
ag55
ag55
ag55
ag55
ag55
ag55
ag55
ag55
ag55
ag55
ag55
ag55
ag55
ag55
ag55
ag55
ag55
ag55
ag55
ag55
ag55
ag55
ag55
ag55
ag55
ag55
ag55
ag55
ag55
ag55
ag55
ag55
ag55
ag55
ag55
ag55
ag55
ag55
ag55
ag55
ag55
ag55
ag55
ag55
ag55
ag55
ag55
ag55
ag55
ag55
ag55
ag55
ag55
ag55
ag55
ag55
ag55
ag55
ag55
ag55
ag55
ag55
ag55
ag55
ag55
ag55
ag55
ag55
ag55
ag55
ag55
ag55
ag55
ag55
ag55
ag55
ag55
ag55
ag55
ag55
ag55
ag55
ag55
ag55
ag55
ag55
ag55
ag55
ag55
ag55
ag55
ag55
ag55
ag55
ag55
ag55
ag55
ag55
ag55
ag55
ag55
ag55
ag55
ag55
ag55
ag55
ag55
ag55
ag55
ag55
ag55
ag55
ag55
ag55
ag55
ag55
ag55
ag55
ag55
ag55
ag55
ag55
ag55
ag55
ag55
ag55
ag55
ag55
ag55
ag55
ag55
ag55
ag55
ag55
ag55
ag55
ag55
ag55
ag55
ag55
ag55
ag55
ag55
ag55
ag55
ag55
ag55
ag55
ag55
ag55
ag55
ag55
ag55
ag55
ag55
ag55
ag55
ag55
ag55
ag55
ag55
ag55
ag55
ag55
ag55
ag55
ag55
ag55
ag55
ag55
ag55
ag55
ag55
ag55
ag55
ag55
ag55
ag55
ag55
ag55
ag55
ag55
ag55
ag55
ag55
ag55
ag55
ag55
ag55
ag55
ag55
ag55
ag55
ag55
ag55
ag55
ag55
ag55
ag55
ag55
ag55
ag55
ag55
ag55
ag55
ag55
ag55
ag55
ag55
ag55
ag55
ag55
ag55
ag55
ag55
ag55
ag55
ag55
ag55
ag55
ag55
ag55
ag55
ag55
ag55
ag55
ag55
ag55
ag55
ag55
ag55
ag55
ag55
ag55
ag55
ag55
ag55
ag55
ag55
ag55
ag55
ag55
ag55
ag55
ag55
ag55
ag55
ag55
ag55
ag55
ag55
ag55
ag55
ag55
ag55
ag55
ag55
ag55
ag55
ag55
ag55
ag55
ag55
ag55
ag55
ag55
ag55
ag55
ag55
ag55
ag55
ag55
ag55
ag55
ag55
ag55
ag55
ag55
ag55
ag55
ag55
ag55
ag55
ag55
ag55
ag55
ag55
ag55
ag55
ag55
ag55
ag55
ag55
ag55
ag55
ag55
ag55
ag55
ag55
ag55
ag55
ag55
ag55
ag55
ag55
ag55
ag55
ag55
ag55
ag55
ag55
ag55
ag55
ag55
ag55
ag55
ag55
ag55
ag55
ag55
ag55
ag55
ag55
ag55
ag55
ag55
ag55
ag55
ag55
ag55
ag55
ag55
ag55
ag55
ag55
ag55
ag55
ag55
ag55
ag55
ag55
ag55
ag55
ag55
ag55
ag55
ag55
ag55
ag55
ag55
ag55
ag55
ag55
ag55
ag55
ag55
ag55
ag55
ag55
ag55
ag55
ag55
ag55
ag55
ag55
ag55
ag55
ag55
ag55
ag55
ag55
ag55
ag55
ag55
ag55
ag55
ag55
ag55
ag55
ag55
ag55
ag55
ag55
ag55
ag55
ag55
ag55
ag55
ag55
ag55
ag55
ag55
ag55
ag55
ag55
ag55
ag55
ag55
ag55
ag55
ag55
ag55
ag55
ag55
ag55
ag55
ag55
ag55
ag55
ag55
ag55
ag55
ag55
ag55
ag55
ag55
ag55
ag55
ag55
ag55
ag55
ag55
ag55
ag55
ag55
ag55
ag55
ag55
ag55
ag55
ag55
ag55
ag55
ag55
ag55
ag55
ag55
ag55
ag55
ag55
ag55
ag55
ag55
ag55
ag55
ag55
ag55
ag55
ag55
ag55
ag55
ag55
ag55
ag55
ag55
ag55
ag55
ag55
ag55
ag55
ag55
ag55
ag55
ag55
ag55
ag55
ag55
ag55
ag55
ag55
ag55
ag55
ag55
ag55
ag55
ag55
ag55
ag55
ag55
ag55
ag55
ag55
ag55
ag55
ag55
ag55
ag55
ag55
ag55
ag55
ag55
ag55
ag55
ag55
ag55
ag55
ag55
ag55
ag55
ag55
ag55
ag55
ag55
ag55
ag55
ag55
ag55
ag55
ag55
ag55
ag55
ag55
ag55
ag55
ag55
ag55
ag55
ag55
ag55
ag55
ag55
ag55
ag55
ag55
ag55
ag55
ag55
ag55
ag55
ag55
ag55
ag55
ag55
ag55
ag55
ag55
ag55
ag55
ag55
ag55
ag55
ag55
ag55
ag55
ag55
ag55
ag55
ag55
ag55
ag55
ag55
ag55
ag55
ag55
ag55
ag55
ag55
ag55
ag55
ag55
ag55
ag55
ag55
ag55
ag55
ag55
ag55
ag55
ag55
ag55
ag55
ag55
ag55
ag55
ag55
ag55
ag55
ag55
ag55
ag55
ag55
ag55
ag55
ag55
ag55
ag55
ag55
ag55
ag55
ag55
ag55
ag55
ag55
ag55
ag55
ag55
ag55
ag55
ag55
ag55
ag55
ag55
ag55
ag55
ag55
ag55
ag55
ag55
ag55
ag55
ag55
ag55
ag55
ag55
ag55
ag55
ag55
ag55
ag55
ag55
ag55
ag55
ag55
ag55
ag55
ag55
ag55
ag55
ag55
ag55
ag55
ag55
ag55
ag55
ag55
ag55
ag55
ag55
ag55
ag55
ag55
ag55
ag55
ag55
ag55
ag55
ag55
ag55
ag55
ag55
ag55
ag55
ag55
ag55
ag55
ag55
ag55
ag55
ag55
ag55
ag55
ag55
ag55
ag55
ag55
ag55
ag55
ag55
ag55
ag55
ag55
ag55
ag55
ag55
ag55
ag55
ag55
ag55
ag55
ag55
ag55
ag55
ag55
ag55
ag55
ag55
ag55
ag55
ag55
ag55
ag55
ag55
ag55
ag55
ag55
ag55
ag55
ag55
ag55
ag55
ag55
ag55
ag55
ag55
ag55
ag55
ag55
ag55
ag55
ag55
ag55
ag55
ag55
ag55
ag55
ag55
ag55
ag55
ag55
ag55
ag55
ag55
ag55
ag55
ag55
ag55
ag55
ag55
ag55
ag55
ag55
ag55
ag55
ag55
ag55
ag55
ag55
ag55
ag55
ag55
ag55
ag55
ag55
ag55
ag55
ag55
ag55
ag55
ag55
ag55
ag55
ag55
ag55
ag55
ag55
ag55
ag55
ag55
ag55
ag55
ag55
ag55
ag55
ag55
ag55
ag55
ag55
ag55
ag55
ag55
ag55
ag55
ag55
ag55
ag55
ag55
ag55
ag55
ag55
ag55
ag55
ag55
ag55
ag55
ag55
ag55
ag55
ag55
ag55
ag55
ag55
ag55
ag55
ag55
ag55
ag55
ag55
ag55
ag55
ag55
ag55
ag55
ag55
ag55
ag55
ag55
ag55
ag55
ag55
ag55
ag55
ag55
ag55
ag55
ag55
ag55
ag55
ag55
ag55
ag55
ag55
ag55
ag55
ag55
ag55
ag55
ag55
ag55
ag55
ag55
ag55
ag55
ag55
ag55
ag55
ag55
ag55
ag55
ag55
ag55
ag55
ag55
ag55
ag55
ag55
ag55
ag55
ag55
ag55
ag55
ag55
ag55
ag55
ag55
ag55
ag55
ag55
ag55
ag55
ag55
ag55
ag55
ag55
ag55
ag55
ag55
ag55
ag55
ag55
ag55
ag55
ag55
ag55
ag55
ag55
ag55
ag55
ag55
ag55
ag55
ag55
ag55
ag55
ag55
ag55
ag55
ag55
ag55
ag55
ag55
ag55
ag55
ag55
ag55
ag55
ag55
ag55
ag55
ag55
ag55
ag55
ag55
ag55
ag55
ag55
ag55
ag55
ag55
ag55
ag55
ag55
ag55
ag55
ag55
ag55
ag55
ag55
ag55
ag55
ag55
ag55
ag55
ag55
ag55
ag55
ag55
ag55
ag55
ag55
ag55
ag55
ag55
ag55
ag55
ag55
ag55
ag55
ag55
ag55
ag55
ag55
ag55
ag55
ag55
ag55
ag55
ag55
ag55
ag55
ag55
ag55
ag55
ag55
ag55
ag55
ag55
ag55
ag55
ag55
ag55
ag55
ag55
ag55
ag55
ag55
ag55
ag55
ag55
ag55
ag55
ag55
ag55
ag55
ag55
ag55
ag55
ag55
ag55
ag55
ag55
ag55
ag55
ag55
ag55
ag55
ag55
ag55
ag55
ag55
ag55
ag55
ag55
ag55
ag55
ag55
ag55
ag55
ag55
ag55
ag55
ag55
ag55
ag55
ag55
ag55
ag55
ag55
ag55
ag55
ag55
ag55
ag55
ag55
ag55
ag55
ag55
ag55
ag55
ag55
ag55
ag55
ag55
ag55
ag55
ag55
ag55
ag55
ag55
ag55
ag55
ag55
ag55
ag55
ag55
ag55
ag55
ag55
ag55
ag55
ag55
ag55
ag55
ag55
ag55
ag55
ag55
ag55
ag55
ag55
ag55
ag55
ag55
ag55
ag55
ag55
ag55
ag55
ag55
ag55
ag55
ag55
ag55
ag55
ag55
ag55
ag55
ag55
ag55
ag55
ag55
ag55
ag55
ag55
ag55
ag55
ag55
ag55
ag55
ag55
ag55
ag55
ag55
ag55
ag55
ag55
ag55
ag55
ag55
ag55
ag55
ag55
ag55
ag55
ag55
ag55
ag55
ag55
ag55
ag55
ag55
ag55
ag55
ag55
ag55
ag55
ag55
ag55
ag55
ag55
ag55
ag55
ag55
ag55
ag55
ag55
ag55
ag55
ag55
ag55
ag55
ag55
ag55
ag55
ag55
ag55
ag55
ag55
ag55
ag55
ag55
ag55
ag55
ag55
ag55
ag55
ag55
ag55
ag55
ag55
ag55
ag55
ag55
ag55
ag55
ag55
ag55
ag55
ag55
ag55
ag55
ag55
ag55
ag55
ag55
ag55
ag55
ag55
ag55
ag55
ag55
ag55
ag55
ag55
ag55
ag55
ag55
ag55
ag55
ag55
ag55
ag55
ag55
ag55
ag55
ag55
ag55
ag55
ag55
ag55
ag55
ag55
ag55
ag55
ag55
ag55
ag55
ag55
ag55
ag55
ag55
ag55
ag55
ag55
ag55
ag55
ag55
ag55
ag55
ag55
ag55
ag55
ag55
ag55
ag55
ag55
ag55
ag55
ag55
ag55
ag55
ag55
ag55
ag55
ag55
ag55
ag55
ag55
ag55
ag55
ag55
ag55
ag55
ag55
ag55
ag55
ag55
ag55
ag55
ag55
ag55
ag55
ag55
ag55
ag55
ag55
ag55
ag55
ag55
ag55
ag55
ag55
ag55
ag55
ag55
ag55
ag55
ag55
ag55
ag55
ag55
ag55
ag55
ag55
ag55
ag55
ag55
ag55
ag55
ag55
ag55
ag55
ag55
ag55
ag55
ag55
ag55
ag55
ag55
ag55
ag55
ag55
ag55
ag55
ag55
ag55
ag55
ag55
ag55
ag55
ag55
ag55
ag55
ag55
ag55
ag55
ag55
ag55
ag55
ag55
ag55
ag55
ag55
ag55
ag55
ag55
ag55
ag55
ag55
ag55
ag55
ag55
ag55
ag55
ag55
ag55
ag55
ag55
ag55
ag55
ag55
ag55
ag55
ag55
ag55
ag55
ag55
ag55
ag55
ag55
ag55
ag55
ag55
ag55
ag55
ag55
ag55
ag55
ag55
ag55
ag55
ag55
ag55
ag55
ag55
ag55
ag55
ag55
ag55
ag55
ag55
ag55
ag55
ag55
ag55
ag55
ag55
ag55
ag55
ag55
ag55
ag55
ag55
ag55
ag55
ag55
ag55
ag55
ag55
ag55
ag55
ag55
ag55
ag55
ag55
ag55
ag55
ag55
ag55
ag55
ag55
ag55
ag55
ag55
ag55
ag55
ag55
ag55
ag55
ag55
ag55
ag55
ag55
ag55
ag55
ag55
ag55
ag55
ag55
ag55
ag55
ag55
ag55
ag55
ag55
ag55
ag55
ag55
ag55
ag55
ag55
ag55
ag55
ag55
ag55
ag55
ag55
ag55
ag55
ag55
ag55
ag55
ag55
ag55
ag55
ag55
ag55
ag55
ag55
ag55
ag55
ag55
ag55
ag55
ag55
ag55
ag55
ag55
ag55
ag55
ag55
ag55
ag55
ag55
ag55
ag55
ag55
ag55
ag55
ag55
ag55
ag55
ag55
ag55
ag55
ag55
ag55
ag55
ag55
ag55
ag55
ag55
ag55
ag55
ag55
ag55
ag55
ag55
ag55
ag55
ag55
ag55
ag55
ag55
ag55
ag55
ag55
ag55
ag55
ag55
ag55
ag55
ag55
ag55
ag55
ag55
ag55
ag55
ag55
ag55
ag55
ag55
ag55
ag55
ag55
ag55
ag55
ag55
ag55
ag55
ag55
ag55
ag55
ag55
ag55
ag55
ag55
ag55
ag55
ag55
ag55
ag55
ag55
ag55
ag55
ag55
ag55
ag55
ag55
ag55
ag55
ag55
ag55
ag55
ag55
ag55
ag55
ag55
ag55
ag55
ag55
ag55
ag55
ag55
ag55
ag55
ag55
ag55
ag55
ag55
ag55
ag55
ag55
ag55
ag55
ag55
ag55
ag55
ag55
ag55
ag55
ag55
ag55
ag55
ag55
ag55
ag55
ag55
ag55
ag55
ag55
ag55
ag55
ag55
ag55
ag55
ag55
ag55
ag55
ag55
ag55
ag55
ag55
ag55
ag55
ag55
ag55
ag55
ag55
ag55
ag55
ag55
ag55
ag55
ag55
ag55
ag55
ag55
ag55
ag55
ag55
ag55
ag55
ag55
ag55
ag55
ag55
ag55
ag55
ag55
ag55
ag55
ag55
ag55
ag55
ag55
ag55
ag55
ag55
ag55
ag55
ag55
ag55
ag55
ag55
ag55
ag55
ag55
ag55
ag55
ag55
ag55
ag55
ag55
ag55
ag55
ag55
ag55
ag55
ag55
ag55
ag55
ag55
ag55
ag55
ag55
ag55
ag55
ag55
ag55
ag55
ag55
ag55
ag55
ag55
ag55
ag55
ag55
ag55
ag55
ag55
ag55
ag55
ag55
ag55
ag55
ag55
ag55
ag55
ag55
ag55
ag55
ag55
ag55
ag55
ag55
ag55
ag55
ag55
ag55
ag55
ag55
ag55
ag55
ag55
ag55
ag55
ag55
ag55
ag55
ag55
ag55
ag55
ag55
ag55
ag55
ag55
ag55
ag55
ag55
ag55
ag55
ag55
ag55
ag55
ag55
ag55
ag55
ag55
ag55
ag55
ag55
ag55
ag55
ag55
ag55
ag55
ag55
ag55
ag55
ag55
ag55
ag55
ag55
ag55
ag55
ag55
ag55
ag55
ag55
ag55
ag55
ag55
ag55
ag55
ag55
ag55
ag55
ag55
ag55
ag55
ag55
ag55
ag55
ag55
ag55
ag55
ag55
ag55
ag55
ag55
ag55
ag55
ag55
ag55
ag55
ag55
ag55
ag55
ag55
ag55
ag55
ag55
ag55
ag55
ag55
ag55
ag55
ag55
ag55
ag55
ag55
ag55
ag55
ag55
ag55
ag55
ag55
ag55
ag55
ag55
ag55
ag55
ag55
ag55
ag55
ag55
ag55
ag55
ag55
ag55
ag55
ag55
ag55
ag55
ag55
ag55
ag55
ag55
ag55
ag55
ag55
ag55
ag55
ag55
ag55
ag55
ag55
ag55
ag55
ag55
ag55
ag55
ag55
ag55
ag55
ag55
ag55
ag55
ag55
ag55
ag55
ag55
ag55
ag55
ag55
ag55
ag55
ag55
ag55
ag55
ag55
ag55
ag55
ag55
ag55
ag55
ag55
ag55
ag55
ag55
ag55
ag55
ag55
ag55
ag55
ag55
ag55
ag55
ag55
ag55
ag55
ag55
ag55
ag55
ag55
ag55
ag55
ag55
ag55
ag55
ag55
ag55
ag55
ag55
ag55
ag55
ag55
ag55
ag55
ag55
ag55
ag55
ag55
ag55
ag55
ag55
ag55
ag55
ag55
ag55
ag55
ag55
ag55
ag55
ag55
ag55
ag55
ag55
ag55
ag55
ag55
ag55
ag55
ag55
ag55
ag55
ag55
ag55
ag55
ag55
ag55
ag55
ag55
ag55
ag55
ag55
ag55
ag55
ag55
ag55
ag55
ag55
ag55
ag55
ag55
ag55
ag55
ag55
ag55
ag55
ag55
ag55
ag55
ag55
ag55
ag55
ag55
ag55
ag55
ag55
ag55
ag55
ag55
ag55
ag55
ag55
ag55
ag55
ag55
ag55
ag55
ag55
ag55
ag55
ag55
ag55
ag55
ag55
ag55
ag55
ag55
ag55
ag55
ag55
ag55
ag55
ag55
ag55
ag55
ag55
ag55
ag55
ag55
ag55
ag55
ag55
ag55
ag55
ag55
ag55
ag55
ag55
ag55
ag55
ag55
ag55
ag55
ag55
ag55
ag55
ag55
ag55
ag55
ag55
ag55
ag55
ag55
ag55
ag55
ag55
ag55
ag55
ag55
ag55
ag55
ag55
ag55
ag55
ag55
ag55
ag55
ag55
ag55
ag55
ag55
ag55
ag55
ag55
ag55
ag55
ag55
ag55
ag55
ag55
ag55
ag55
ag55
ag55
ag55
ag55
ag55
ag55
ag55
ag55
ag55
ag55
ag55
ag55
ag55
ag55
ag55
ag55
ag55
ag55
ag55
ag55
ag55
ag55
ag55
ag55
ag55
ag55
ag55
ag55
ag55
ag55
ag55
ag55
ag55
ag55
ag55
ag55
ag55
ag55
ag55
ag55
ag55
ag55
ag55
ag55
ag55
ag55
ag55
ag55
ag55
ag55
ag55
ag55
ag55
ag55
ag55
ag55
ag55
ag55
ag55
ag55
ag55
ag55
ag55
ag55
ag55
ag55
ag55
ag55
ag55
ag55
ag55
ag55
ag55
ag55
ag55
ag55
ag55
ag55
ag55
ag55
ag55
ag55
ag55
ag55
ag55
ag55
ag55
ag55
ag55
ag55
ag55
ag55
ag55
ag55
ag55
ag55
ag55
ag55
ag55
ag55
ag55
ag55
ag55
ag55
ag55
ag55
ag55
ag55
ag55
ag55
ag55
ag55
ag55
ag55
ag55
ag55
ag55
ag55
ag55
ag55
ag55
ag55
ag55
ag55
ag55
ag55
ag55
ag55
ag55
ag55
ag55
ag55
ag55
ag55
ag55
ag55
ag55
ag55
ag55
ag55
ag55
ag55
ag55
ag55
ag55
ag55
ag55
ag55
ag55
ag55
ag55
ag55
ag55
ag55
ag55
ag55
ag55
ag55
ag55
ag55
ag55
ag55
ag55
ag55
ag55
ag55
ag55
ag55
ag55
ag55
ag55
ag55
ag55
ag55
ag55
ag55
ag55
ag55
ag55
ag55
ag55
ag55
ag55
ag55
ag55
ag55
ag55
ag55
ag55
ag55
ag55
ag55
ag55
ag55
ag55
ag55
ag55
ag55
ag55
ag55
ag55
ag55
ag55
ag55
ag55
ag55
ag55
ag55
ag55
ag55
ag55
ag55
ag55
ag55
ag55
ag55
ag55
ag55
ag55
ag55
ag55
ag55
ag55
ag55
ag55
ag55
ag55
ag55
ag55
ag55
ag55
ag55
ag55
ag55
ag55
ag55
ag55
ag55
ag55
ag55
ag55
ag55
ag55
ag55
ag55
ag55
ag55
ag55
ag55
ag55
ag55
ag55
ag55
ag55
ag55
ag55
ag55
ag55
ag55
ag55
ag55
ag55
ag55
ag55
ag55
ag55
ag55
ag55
ag55
ag55
ag55
ag55
ag55
ag55
ag55
ag55
ag55
ag55
ag55
ag55
ag55
ag55
ag55
ag55
ag55
ag55
ag55
ag55
ag55
ag55
ag55
ag55
ag55
ag55
ag55
ag55
ag55
ag55
ag55
ag55
ag55
ag55
ag55
ag55
ag55
ag55
ag55
ag55
ag55
ag55
ag55
ag55
ag55
ag55
ag55
ag55
ag55
ag55
ag55
ag55
ag55
ag55
ag55
ag55
ag55
ag55
ag55
ag55
ag55
ag55
ag55
ag55
ag55
ag55
ag55
ag55
ag55
ag55
ag55
ag55
ag55
ag55
ag55
ag55
ag55
ag55
ag55
ag55
ag55
ag55
ag55
ag55
ag55
ag55
ag55
ag55
ag55
ag55
ag55
ag55
ag55
ag55
ag55
ag55
ag55
ag55
ag55
ag55
ag55
ag55
ag55
ag55
ag55
ag55
ag55
ag55
ag55
ag55
ag55
ag55
ag55
ag55
ag55
ag55
ag55
ag55
ag55
ag55
ag55
ag55
ag55
ag55
ag55
ag55
ag55
ag55
ag55
ag55
ag55
ag55
ag55
ag55
ag55
ag55
ag55
ag55
ag55
ag55
ag55
ag55
ag55
ag55
ag55
ag55
ag55
ag55
ag55
ag55
ag55
ag55
ag55
ag55
ag55
ag55
ag55
ag55
ag55
ag55
ag55
ag55
ag55
ag55
ag55
ag55
ag55
ag55
ag55
ag55
ag55
ag55
ag55
ag55
ag55
ag55
ag55
ag55
ag55
ag55
ag55
ag55
ag55
ag55
ag55
ag55
ag55
ag55
ag55
ag55
ag55
ag55
ag55
ag55
ag55
ag55
ag55
ag55
ag55
ag55
ag55
ag55
ag55
ag55
ag55
ag55
ag55
ag55
ag55
ag55
ag55
ag55
ag55
ag55
ag55
ag55
ag55
ag55
ag55
ag55
ag55
ag55
ag55
ag55
ag55
ag55
ag55
ag55
ag55
ag55
ag55
ag55
ag55
ag55
ag55
ag55
ag55
ag55
ag55
ag55
ag55
ag55
ag55
ag55
ag55
ag55
ag55
ag55
ag55
ag55
ag55
ag55
ag55
ag55
ag55
ag55
ag55
ag55
ag55
ag55
ag55
ag55
ag55
ag55
ag55
ag55
ag55
ag55
ag55
ag55
ag55
ag55
ag55
ag55
ag55
ag55
ag55
ag55
ag55
ag55
ag55
ag55
ag55
ag55
ag55
ag55
ag55
ag55
ag55
ag55
ag55
ag55
ag55
ag55
ag55
ag55
ag55
ag55
ag55
ag55
ag55
ag55
ag55
ag55
ag55
ag55
ag55
ag55
aS'chip.cox@enron.com'
p56
ag56
ag56
ag56
ag56
ag56
ag56
ag56
ag56
ag56
ag56
ag56
ag56
ag56
ag56
ag56
ag56
ag56
ag56
ag56
ag56
ag56
ag56
aS'jeff.skilling@enron.com'
p57
ag57
ag57
ag57
ag57
ag57
ag57
ag57
ag57
ag57
ag57
ag57
ag57
ag57
ag57
ag57
ag57
ag57
ag57
ag57
ag57
ag57
ag57
ag57
ag57
ag57
ag57
ag57
ag57
ag57
ag57
ag57
ag57
ag57
ag57
ag57
ag57
ag57
ag57
ag57
ag57
ag57
ag57
ag57
ag57
ag57
ag57
ag57
ag57
ag57
ag57
ag57
ag57
ag57
ag57
ag57
ag57
ag57
ag57
ag57
ag57
ag57
ag57
ag57
ag57
ag57
ag57
ag57
ag57
ag57
aS'jeffrey.sherrick@enron.com'
p58
ag58
ag58
ag58
ag58
ag58
ag58
ag58
ag58
ag58
ag58
aS'mark.pickering@enron.com'
p59
ag59
ag59
ag59
ag59
ag59
ag59
ag59
ag59
ag59
ag59
ag59
ag59
ag59
ag59
ag59
ag59
ag59
ag59
ag59
ag59
ag59
ag59
ag59
ag59
ag59
ag59
ag59
ag59
ag59
ag59
ag59
ag59
ag59
ag59
ag59
ag59
ag59
ag59
ag59
ag59
ag59
ag59
ag59
ag59
ag59
ag59
ag59
ag59
ag59
ag59
ag59
ag59
ag59
ag59
ag59
ag59
ag59
ag59
ag59
ag59
aS'steven.kean@enron.com'
p60
ag60
ag60
ag60
ag60
ag60
ag60
ag60
ag60
ag60
ag60
ag60
ag60
ag60
ag60
ag60
ag60
ag60
ag60
ag60
ag60
ag60
ag60
ag60
ag60
ag60
ag60
ag60
ag60
ag60
ag60
ag60
ag60
ag60
ag60
ag60
ag60
ag60
ag60
ag60
ag60
ag60
ag60
ag60
ag60
ag60
ag60
ag60
ag60
ag60
ag60
ag60
ag60
ag60
ag60
ag60
ag60
ag60
ag60
ag60
ag60
ag60
ag60
ag60
ag60
ag60
ag60
ag60
ag60
ag60
ag60
ag60
ag60
ag60
ag60
ag60
ag60
ag60
ag60
ag60
ag60
ag60
ag60
ag60
ag60
ag60
ag60
ag60
ag60
ag60
ag60
ag60
ag60
ag60
ag60
ag60
ag60
ag60
ag60
ag60
ag60
ag60
ag60
ag60
ag60
ag60
ag60
ag60
ag60
ag60
ag60
ag60
ag60
ag60
ag60
ag60
ag60
ag60
ag60
ag60
ag60
ag60
ag60
ag60
ag60
ag60
ag60
ag60
ag60
ag60
ag60
ag60
ag60
ag60
ag60
ag60
ag60
ag60
ag60
ag60
ag60
ag60
ag60
ag60
ag60
ag60
ag60
ag60
ag60
ag60
ag60
ag60
ag60
ag60
ag60
ag60
ag60
ag60
ag60
ag60
ag60
ag60
ag60
ag60
ag60
ag60
ag60
ag60
ag60
ag60
ag60
ag60
ag60
ag60
ag60
ag60
ag60
ag60
ag60
ag60
ag60
ag60
ag60
ag60
ag60
ag60
ag60
ag60
ag60
ag60
ag60
ag60
ag60
ag60
ag60
ag60
ag60
ag60
ag60
ag60
ag60
ag60
ag60
ag60
ag60
ag60
ag60
ag60
ag60
ag60
ag60
ag60
ag60
ag60
ag60
ag60
ag60
ag60
ag60
ag60
ag60
ag60
ag60
ag60
ag60
ag60
ag60
ag60
ag60
ag60
ag60
ag60
ag60
ag60
ag60
ag60
ag60
ag60
ag60
ag60
ag60
ag60
ag60
ag60
ag60
ag60
ag60
ag60
ag60
ag60
ag60
ag60
ag60
ag60
ag60
ag60
ag60
ag60
ag60
ag60
ag60
ag60
ag60
ag60
ag60
ag60
ag60
ag60
ag60
ag60
ag60
ag60
ag60
ag60
ag60
ag60
ag60
ag60
ag60
ag60
ag60
ag60
ag60
ag60
ag60
ag60
ag60
ag60
ag60
ag60
ag60
ag60
ag60
ag60
ag60
ag60
ag60
ag60
ag60
ag60
ag60
ag60
ag60
ag60
ag60
ag60
ag60
ag60
ag60
ag60
ag60
ag60
ag60
ag60
ag60
ag60
ag60
ag60
ag60
ag60
ag60
ag60
ag60
ag60
ag60
ag60
ag60
ag60
ag60
ag60
ag60
ag60
ag60
ag60
ag60
ag60
ag60
ag60
ag60
ag60
ag60
ag60
ag60
ag60
ag60
ag60
ag60
ag60
ag60
ag60
ag60
ag60
ag60
ag60
ag60
ag60
ag60
ag60
ag60
ag60
ag60
ag60
ag60
ag60
ag60
ag60
ag60
ag60
ag60
ag60
ag60
ag60
ag60
ag60
ag60
ag60
ag60
ag60
ag60
ag60
ag60
ag60
ag60
ag60
ag60
ag60
ag60
ag60
ag60
ag60
ag60
ag60
ag60
ag60
ag60
ag60
ag60
ag60
ag60
ag60
ag60
ag60
ag60
ag60
ag60
ag60
ag60
ag60
ag60
ag60
ag60
ag60
ag60
ag60
ag60
ag60
ag60
ag60
ag60
ag60
ag60
ag60
ag60
ag60
ag60
ag60
ag60
ag60
ag60
ag60
ag60
ag60
ag60
ag60
ag60
ag60
ag60
ag60
ag60
ag60
ag60
ag60
ag60
ag60
ag60
ag60
ag60
ag60
ag60
ag60
ag60
ag60
ag60
ag60
ag60
ag60
ag60
ag60
ag60
ag60
ag60
ag60
ag60
ag60
ag60
ag60
ag60
ag60
ag60
ag60
ag60
ag60
ag60
ag60
ag60
ag60
ag60
ag60
ag60
ag60
ag60
ag60
ag60
ag60
ag60
ag60
ag60
ag60
ag60
ag60
ag60
ag60
ag60
ag60
ag60
ag60
ag60
ag60
ag60
ag60
ag60
ag60
ag60
ag60
ag60
ag60
ag60
ag60
ag60
ag60
ag60
ag60
ag60
ag60
ag60
ag60
ag60
ag60
ag60
ag60
ag60
ag60
ag60
ag60
ag60
ag60
ag60
ag60
ag60
ag60
ag60
ag60
ag60
ag60
ag60
ag60
ag60
ag60
ag60
ag60
ag60
ag60
ag60
ag60
ag60
ag60
ag60
ag60
ag60
ag60
ag60
ag60
ag60
ag60
ag60
ag60
ag60
ag60
ag60
ag60
ag60
ag60
ag60
ag60
ag60
ag60
ag60
ag60
ag60
ag60
ag60
ag60
ag60
ag60
ag60
ag60
ag60
ag60
ag60
ag60
ag60
ag60
ag60
ag60
ag60
ag60
ag60
ag60
ag60
ag60
ag60
ag60
ag60
ag60
ag60
ag60
ag60
ag60
ag60
ag60
ag60
ag60
ag60
ag60
ag60
ag60
ag60
ag60
ag60
ag60
ag60
ag60
ag60
ag60
ag60
ag60
ag60
ag60
ag60
ag60
ag60
ag60
ag60
ag60
ag60
ag60
ag60
ag60
ag60
ag60
ag60
ag60
ag60
ag60
ag60
ag60
ag60
ag60
ag60
ag60
ag60
ag60
ag60
ag60
ag60
ag60
ag60
ag60
ag60
ag60
ag60
ag60
ag60
ag60
ag60
ag60
ag60
ag60
ag60
ag60
ag60
ag60
ag60
ag60
ag60
ag60
ag60
ag60
ag60
ag60
ag60
ag60
ag60
ag60
ag60
ag60
ag60
ag60
ag60
ag60
ag60
ag60
ag60
ag60
ag60
ag60
ag60
ag60
ag60
ag60
ag60
ag60
ag60
ag60
ag60
ag60
ag60
ag60
ag60
ag60
ag60
ag60
ag60
ag60
ag60
ag60
ag60
ag60
ag60
ag60
ag60
ag60
ag60
ag60
ag60
ag60
ag60
ag60
ag60
ag60
ag60
ag60
ag60
ag60
ag60
ag60
ag60
ag60
ag60
ag60
ag60
ag60
ag60
ag60
ag60
ag60
ag60
ag60
ag60
ag60
ag60
ag60
ag60
ag60
ag60
ag60
ag60
ag60
ag60
ag60
ag60
ag60
ag60
ag60
ag60
ag60
ag60
ag60
ag60
ag60
ag60
ag60
ag60
ag60
ag60
ag60
ag60
ag60
ag60
ag60
ag60
ag60
ag60
ag60
ag60
ag60
ag60
ag60
ag60
ag60
ag60
ag60
ag60
ag60
ag60
ag60
ag60
ag60
ag60
ag60
ag60
ag60
ag60
ag60
ag60
ag60
ag60
ag60
ag60
ag60
ag60
ag60
ag60
ag60
ag60
ag60
ag60
ag60
ag60
ag60
ag60
ag60
ag60
ag60
ag60
ag60
ag60
ag60
ag60
ag60
ag60
ag60
ag60
ag60
ag60
ag60
ag60
ag60
ag60
ag60
ag60
ag60
ag60
ag60
ag60
ag60
ag60
ag60
ag60
ag60
ag60
ag60
ag60
ag60
ag60
ag60
ag60
ag60
ag60
ag60
ag60
ag60
ag60
ag60
ag60
ag60
ag60
ag60
ag60
ag60
ag60
ag60
ag60
ag60
ag60
ag60
ag60
ag60
ag60
ag60
ag60
ag60
ag60
ag60
ag60
ag60
ag60
ag60
ag60
ag60
ag60
ag60
ag60
ag60
ag60
ag60
ag60
ag60
ag60
ag60
ag60
ag60
ag60
ag60
ag60
ag60
ag60
ag60
ag60
ag60
ag60
ag60
ag60
ag60
ag60
ag60
ag60
ag60
ag60
ag60
ag60
ag60
ag60
ag60
ag60
ag60
ag60
ag60
ag60
ag60
ag60
ag60
ag60
ag60
ag60
ag60
ag60
ag60
ag60
ag60
ag60
ag60
ag60
ag60
ag60
ag60
ag60
ag60
ag60
ag60
ag60
ag60
ag60
ag60
ag60
ag60
ag60
ag60
ag60
ag60
ag60
ag60
ag60
ag60
ag60
ag60
ag60
ag60
ag60
ag60
ag60
ag60
ag60
ag60
ag60
ag60
ag60
ag60
ag60
ag60
ag60
ag60
ag60
ag60
ag60
ag60
ag60
ag60
ag60
ag60
ag60
ag60
ag60
ag60
ag60
ag60
ag60
ag60
ag60
ag60
ag60
ag60
ag60
ag60
ag60
ag60
ag60
ag60
ag60
ag60
ag60
ag60
ag60
ag60
ag60
ag60
ag60
ag60
ag60
ag60
ag60
ag60
ag60
ag60
ag60
ag60
ag60
ag60
ag60
ag60
ag60
ag60
ag60
ag60
ag60
ag60
ag60
ag60
ag60
ag60
ag60
ag60
ag60
ag60
ag60
ag60
ag60
ag60
ag60
ag60
ag60
ag60
ag60
ag60
ag60
ag60
ag60
ag60
ag60
ag60
ag60
ag60
ag60
ag60
ag60
ag60
ag60
ag60
ag60
ag60
ag60
ag60
ag60
ag60
ag60
ag60
ag60
ag60
ag60
ag60
ag60
ag60
ag60
ag60
ag60
ag60
ag60
ag60
ag60
ag60
ag60
ag60
ag60
ag60
ag60
ag60
ag60
ag60
ag60
ag60
ag60
ag60
ag60
ag60
ag60
ag60
ag60
ag60
ag60
ag60
ag60
ag60
ag60
ag60
ag60
ag60
ag60
ag60
ag60
ag60
ag60
ag60
ag60
ag60
ag60
ag60
ag60
ag60
ag60
ag60
ag60
ag60
ag60
ag60
ag60
ag60
ag60
ag60
ag60
ag60
ag60
ag60
ag60
ag60
ag60
ag60
ag60
ag60
ag60
ag60
ag60
ag60
ag60
ag60
ag60
ag60
ag60
ag60
ag60
ag60
ag60
ag60
ag60
ag60
ag60
ag60
ag60
ag60
ag60
ag60
ag60
ag60
ag60
ag60
ag60
ag60
ag60
ag60
ag60
ag60
ag60
ag60
ag60
ag60
ag60
ag60
ag60
ag60
ag60
ag60
ag60
ag60
ag60
ag60
ag60
ag60
ag60
ag60
ag60
ag60
ag60
ag60
ag60
ag60
ag60
ag60
ag60
ag60
ag60
ag60
ag60
ag60
ag60
ag60
ag60
ag60
ag60
ag60
ag60
ag60
ag60
ag60
ag60
ag60
ag60
ag60
ag60
ag60
ag60
ag60
ag60
ag60
ag60
ag60
ag60
ag60
ag60
ag60
ag60
ag60
ag60
ag60
ag60
ag60
ag60
ag60
ag60
ag60
ag60
ag60
ag60
ag60
ag60
ag60
ag60
ag60
ag60
ag60
ag60
ag60
ag60
ag60
ag60
ag60
ag60
ag60
ag60
ag60
ag60
ag60
ag60
ag60
ag60
ag60
ag60
ag60
ag60
ag60
ag60
ag60
ag60
ag60
ag60
ag60
ag60
ag60
ag60
ag60
ag60
ag60
ag60
ag60
ag60
ag60
ag60
ag60
ag60
ag60
ag60
ag60
ag60
ag60
ag60
ag60
ag60
ag60
ag60
ag60
ag60
ag60
ag60
ag60
ag60
ag60
ag60
ag60
ag60
ag60
ag60
ag60
ag60
ag60
ag60
ag60
ag60
ag60
ag60
ag60
ag60
ag60
ag60
ag60
ag60
ag60
ag60
ag60
ag60
ag60
ag60
ag60
ag60
ag60
ag60
ag60
ag60
ag60
ag60
ag60
ag60
ag60
ag60
ag60
ag60
ag60
ag60
ag60
ag60
ag60
ag60
ag60
ag60
ag60
ag60
ag60
ag60
ag60
ag60
ag60
ag60
ag60
ag60
ag60
ag60
ag60
ag60
ag60
ag60
ag60
ag60
ag60
ag60
ag60
ag60
ag60
ag60
ag60
ag60
ag60
ag60
ag60
ag60
ag60
ag60
ag60
ag60
ag60
ag60
ag60
ag60
ag60
ag60
ag60
ag60
ag60
ag60
ag60
ag60
ag60
ag60
ag60
ag60
ag60
ag60
ag60
ag60
ag60
ag60
ag60
ag60
ag60
ag60
ag60
ag60
ag60
ag60
ag60
ag60
ag60
ag60
ag60
ag60
ag60
ag60
ag60
ag60
ag60
ag60
ag60
ag60
ag60
ag60
ag60
ag60
ag60
ag60
ag60
ag60
ag60
ag60
ag60
ag60
ag60
ag60
ag60
ag60
ag60
ag60
ag60
ag60
ag60
ag60
ag60
ag60
ag60
ag60
ag60
ag60
ag60
ag60
ag60
ag60
ag60
ag60
ag60
aS'kulvinder.fowler@enron.com'
p61
ag61
ag61
ag61
ag61
ag61
ag61
ag61
ag61
ag61
ag61
ag61
ag61
ag61
ag61
ag61
ag61
ag61
ag61
ag61
ag61
ag61
ag61
ag61
ag61
ag61
ag61
ag61
ag61
ag61
ag61
ag61
ag61
ag61
ag61
aS'george.wasaff@enron.com'
p62
ag62
ag62
ag62
ag62
ag62
ag62
ag62
ag62
ag62
ag62
ag62
ag62
ag62
ag62
ag62
ag62
aS'phillip.allen@enron.com'
p63
ag63
ag63
ag63
ag63
ag63
ag63
ag63
ag63
ag63
ag63
ag63
ag63
ag63
ag63
ag63
ag63
ag63
ag63
ag63
ag63
ag63
ag63
ag63
ag63
ag63
ag63
ag63
ag63
ag63
ag63
ag63
ag63
ag63
ag63
ag63
ag63
ag63
ag63
ag63
ag63
ag63
ag63
ag63
ag63
ag63
ag63
ag63
ag63
ag63
ag63
ag63
ag63
ag63
ag63
ag63
ag63
ag63
ag63
ag63
ag63
ag63
ag63
ag63
ag63
ag63
ag63
ag63
ag63
ag63
ag63
ag63
ag63
ag63
ag63
ag63
ag63
ag63
ag63
ag63
ag63
ag63
ag63
ag63
ag63
ag63
ag63
ag63
ag63
ag63
ag63
ag63
ag63
ag63
ag63
ag63
ag63
ag63
ag63
ag63
ag63
ag63
ag63
ag63
ag63
ag63
ag63
ag63
ag63
ag63
ag63
ag63
ag63
ag63
ag63
ag63
ag63
ag63
ag63
ag63
ag63
ag63
ag63
ag63
ag63
ag63
ag63
ag63
ag63
ag63
ag63
ag63
ag63
ag63
ag63
ag63
ag63
ag63
ag63
ag63
ag63
ag63
ag63
ag63
ag63
ag63
ag63
ag63
ag63
ag63
ag63
ag63
ag63
ag63
ag63
ag63
ag63
ag63
ag63
ag63
ag63
ag63
ag63
ag63
ag63
ag63
ag63
ag63
ag63
ag63
ag63
ag63
ag63
ag63
ag63
ag63
ag63
ag63
ag63
ag63
ag63
ag63
ag63
ag63
ag63
ag63
ag63
ag63
ag63
ag63
ag63
ag63
ag63
ag63
ag63
ag63
ag63
ag63
ag63
ag63
ag63
ag63
ag63
ag63
ag63
ag63
ag63
ag63
ag63
ag63
ag63
ag63
ag63
ag63
ag63
ag63
ag63
ag63
ag63
ag63
ag63
ag63
ag63
ag63
ag63
ag63
ag63
ag63
ag63
ag63
ag63
ag63
ag63
ag63
ag63
ag63
ag63
ag63
ag63
ag63
ag63
ag63
ag63
ag63
ag63
ag63
ag63
ag63
ag63
ag63
ag63
ag63
ag63
ag63
ag63
ag63
ag63
ag63
ag63
ag63
ag63
ag63
ag63
ag63
ag63
ag63
ag63
ag63
ag63
ag63
ag63
ag63
ag63
ag63
ag63
ag63
ag63
ag63
ag63
ag63
ag63
ag63
ag63
ag63
ag63
ag63
ag63
ag63
ag63
ag63
ag63
ag63
ag63
ag63
ag63
ag63
ag63
ag63
ag63
ag63
ag63
ag63
ag63
ag63
ag63
ag63
ag63
ag63
ag63
ag63
ag63
ag63
ag63
ag63
ag63
ag63
ag63
ag63
ag63
ag63
ag63
ag63
ag63
ag63
ag63
ag63
ag63
ag63
ag63
ag63
ag63
ag63
ag63
ag63
ag63
ag63
ag63
ag63
ag63
ag63
ag63
ag63
ag63
ag63
ag63
ag63
ag63
ag63
ag63
ag63
ag63
ag63
ag63
ag63
ag63
ag63
ag63
ag63
ag63
ag63
ag63
ag63
ag63
ag63
ag63
ag63
ag63
ag63
ag63
ag63
ag63
ag63
ag63
ag63
ag63
ag63
ag63
ag63
ag63
ag63
ag63
ag63
ag63
ag63
ag63
ag63
ag63
ag63
ag63
ag63
ag63
ag63
ag63
ag63
ag63
ag63
ag63
ag63
ag63
ag63
ag63
ag63
ag63
ag63
ag63
ag63
ag63
ag63
ag63
ag63
ag63
ag63
ag63
ag63
ag63
ag63
ag63
ag63
ag63
ag63
ag63
ag63
ag63
ag63
ag63
ag63
ag63
ag63
ag63
ag63
ag63
ag63
ag63
ag63
ag63
ag63
ag63
ag63
ag63
ag63
ag63
ag63
ag63
ag63
ag63
ag63
ag63
ag63
ag63
ag63
ag63
ag63
ag63
ag63
ag63
ag63
ag63
ag63
ag63
ag63
ag63
ag63
ag63
ag63
ag63
ag63
ag63
ag63
ag63
ag63
ag63
ag63
ag63
ag63
ag63
ag63
ag63
ag63
ag63
ag63
ag63
ag63
ag63
ag63
ag63
ag63
ag63
ag63
ag63
ag63
ag63
ag63
ag63
ag63
ag63
ag63
ag63
ag63
ag63
ag63
ag63
ag63
ag63
ag63
ag63
ag63
ag63
ag63
ag63
ag63
ag63
ag63
ag63
ag63
ag63
ag63
ag63
ag63
ag63
ag63
ag63
ag63
ag63
ag63
ag63
ag63
ag63
ag63
ag63
ag63
ag63
ag63
ag63
ag63
ag63
ag63
ag63
ag63
ag63
ag63
ag63
ag63
ag63
ag63
ag63
ag63
ag63
ag63
ag63
ag63
ag63
ag63
ag63
ag63
ag63
ag63
ag63
ag63
ag63
ag63
ag63
ag63
ag63
ag63
ag63
ag63
ag63
ag63
ag63
ag63
ag63
ag63
ag63
ag63
ag63
ag63
ag63
ag63
ag63
ag63
ag63
ag63
ag63
ag63
ag63
ag63
ag63
ag63
ag63
ag63
ag63
ag63
ag63
ag63
ag63
ag63
ag63
ag63
ag63
ag63
ag63
ag63
ag63
ag63
ag63
ag63
ag63
ag63
ag63
ag63
ag63
ag63
ag63
ag63
ag63
ag63
ag63
ag63
ag63
ag63
ag63
ag63
ag63
ag63
ag63
ag63
ag63
ag63
ag63
ag63
ag63
ag63
ag63
ag63
ag63
ag63
ag63
ag63
ag63
ag63
aS'vicki.sharp@enron.com'
p64
ag64
ag64
ag64
ag64
ag64
ag64
ag64
ag64
ag64
ag64
ag64
ag64
ag64
ag64
ag64
ag64
ag64
ag64
ag64
ag64
ag64
ag64
ag64
ag64
ag64
ag64
ag64
ag64
ag64
ag64
ag64
ag64
ag64
ag64
ag64
ag64
ag64
ag64
ag64
ag64
ag64
ag64
ag64
ag64
ag64
ag64
ag64
ag64
ag64
ag64
ag64
ag64
ag64
ag64
ag64
ag64
ag64
ag64
ag64
ag64
ag64
ag64
ag64
ag64
ag64
ag64
ag64
ag64
ag64
ag64
ag64
ag64
ag64
ag64
ag64
ag64
ag64
ag64
ag64
ag64
aS'michael.brown@enron.com'
p65
ag65
ag65
ag65
ag65
ag65
ag65
ag65
ag65
ag65
ag65
ag65
ag65
ag65
ag65
ag65
ag65
ag65
aS'james.hughes@enron.com'
p66
ag66
ag66
ag66
ag66
ag66
ag66
ag66
ag66
ag66
ag66
aS'sanjay.bhatnagar@enron.com'
p67
ag67
ag67
ag67
ag67
ag67
ag67
ag67
ag67
ag67
ag67
aS'rebecca.carter@enron.com'
p68
ag68
ag68
ag68
ag68
ag68
ag68
aS'john.buchanan@enron.com'
p69
ag69
ag69
ag69
ag69
ag69
ag69
ag69
ag69
ag69
ag69
ag69
ag69
ag69
ag69
ag69
ag69
ag69
ag69
ag69
ag69
ag69
ag69
ag69
ag69
ag69
ag69
ag69
ag69
ag69
ag69
ag69
ag69
ag69
ag69
ag69
ag69
ag69
ag69
ag69
ag69
ag69
ag69
ag69
ag69
ag69
ag69
ag69
ag69
ag69
ag69
ag69
ag69
ag69
ag69
ag69
ag69
ag69
ag69
ag69
ag69
ag69
ag69
ag69
ag69
ag69
ag69
ag69
ag69
ag69
ag69
ag69
ag69
ag69
ag69
ag69
ag69
ag69
ag69
ag69
ag69
ag69
ag69
ag69
ag69
ag69
ag69
ag69
ag69
ag69
ag69
ag69
ag69
ag69
ag69
ag69
ag69
ag69
ag69
ag69
ag69
ag69
ag69
ag69
ag69
ag69
ag69
ag69
ag69
ag69
ag69
ag69
ag69
ag69
ag69
ag69
ag69
ag69
ag69
ag69
ag69
aS'julia.murray@enron.com'
p70
ag70
ag70
ag70
ag70
ag70
ag70
ag70
ag70
ag70
ag70
ag70
ag70
ag70
ag70
ag70
ag70
ag70
ag70
ag70
ag70
ag70
ag70
ag70
ag70
ag70
ag70
ag70
ag70
ag70
ag70
ag70
ag70
ag70
ag70
aS'kevin.garland@enron.com'
p71
ag71
ag71
ag71
ag71
ag71
ag71
ag71
ag71
ag71
ag71
ag71
ag71
ag71
ag71
ag71
ag71
ag71
ag71
ag71
ag71
ag71
ag71
ag71
ag71
ag71
aS'keith.dodson@enron.com'
p72
ag72
ag72
ag72
ag72
ag72
ag72
ag72
ag72
ag72
aS'janet.dietrich@enron.com'
p73
ag73
ag73
ag73
ag73
ag73
ag73
ag73
ag73
ag73
ag73
ag73
ag73
ag73
ag73
ag73
ag73
ag73
ag73
ag73
ag73
ag73
ag73
ag73
ag73
ag73
ag73
ag73
ag73
ag73
ag73
ag73
ag73
ag73
ag73
ag73
ag73
ag73
ag73
ag73
ag73
ag73
ag73
ag73
ag73
ag73
ag73
ag73
ag73
aS'james.derrick@enron.com'
p74
ag74
ag74
ag74
ag74
ag74
ag74
ag74
ag74
ag74
ag74
ag74
ag74
ag74
ag74
ag74
ag74
ag74
ag74
ag74
ag74
ag74
ag74
ag74
ag74
ag74
ag74
ag74
ag74
ag74
ag74
ag74
ag74
ag74
ag74
ag74
ag74
ag74
ag74
ag74
ag74
ag74
ag74
ag74
ag74
ag74
ag74
ag74
ag74
ag74
ag74
ag74
ag74
ag74
ag74
ag74
ag74
ag74
ag74
ag74
ag74
ag74
ag74
ag74
ag74
ag74
ag74
ag74
ag74
ag74
ag74
ag74
ag74
ag74
ag74
ag74
ag74
ag74
ag74
ag74
ag74
ag74
ag74
ag74
ag74
ag74
ag74
ag74
ag74
ag74
ag74
ag74
ag74
ag74
ag74
ag74
ag74
ag74
ag74
ag74
ag74
ag74
ag74
ag74
ag74
ag74
ag74
ag74
ag74
ag74
ag74
ag74
ag74
ag74
ag74
ag74
ag74
ag74
ag74
ag74
ag74
ag74
ag74
ag74
ag74
ag74
ag74
ag74
ag74
ag74
ag74
ag74
ag74
ag74
ag74
ag74
ag74
ag74
ag74
ag74
ag74
ag74
ag74
ag74
ag74
ag74
ag74
ag74
ag74
ag74
ag74
ag74
ag74
ag74
ag74
ag74
ag74
ag74
ag74
ag74
ag74
ag74
ag74
ag74
ag74
ag74
ag74
ag74
ag74
ag74
ag74
ag74
ag74
ag74
ag74
ag74
ag74
ag74
ag74
ag74
ag74
ag74
ag74
ag74
ag74
ag74
ag74
ag74
ag74
ag74
ag74
ag74
ag74
ag74
ag74
ag74
ag74
ag74
ag74
ag74
ag74
ag74
ag74
ag74
ag74
ag74
ag74
ag74
ag74
ag74
ag74
ag74
ag74
ag74
ag74
ag74
ag74
ag74
ag74
ag74
ag74
ag74
ag74
ag74
ag74
ag74
ag74
ag74
ag74
ag74
ag74
ag74
ag74
ag74
ag74
ag74
ag74
ag74
ag74
ag74
ag74
ag74
ag74
ag74
ag74
ag74
ag74
ag74
ag74
ag74
ag74
ag74
ag74
ag74
ag74
ag74
ag74
ag74
ag74
ag74
ag74
ag74
ag74
ag74
ag74
ag74
ag74
ag74
ag74
ag74
ag74
ag74
ag74
ag74
ag74
ag74
ag74
ag74
ag74
ag74
ag74
ag74
ag74
ag74
ag74
ag74
ag74
ag74
ag74
ag74
ag74
ag74
ag74
ag74
ag74
ag74
ag74
ag74
ag74
ag74
ag74
ag74
ag74
ag74
ag74
ag74
ag74
ag74
ag74
ag74
ag74
ag74
ag74
ag74
ag74
ag74
ag74
ag74
ag74
ag74
ag74
ag74
ag74
ag74
ag74
ag74
ag74
ag74
ag74
ag74
ag74
ag74
ag74
ag74
ag74
ag74
ag74
ag74
ag74
ag74
ag74
ag74
ag74
ag74
ag74
ag74
ag74
ag74
ag74
ag74
ag74
ag74
ag74
ag74
ag74
ag74
ag74
ag74
ag74
ag74
ag74
ag74
ag74
ag74
ag74
ag74
ag74
ag74
ag74
ag74
ag74
ag74
ag74
ag74
ag74
ag74
ag74
ag74
ag74
ag74
ag74
ag74
ag74
ag74
ag74
ag74
ag74
ag74
ag74
ag74
ag74
ag74
ag74
ag74
ag74
ag74
ag74
ag74
ag74
ag74
ag74
ag74
ag74
ag74
ag74
ag74
ag74
ag74
ag74
ag74
ag74
ag74
ag74
ag74
ag74
ag74
ag74
ag74
ag74
ag74
ag74
ag74
ag74
ag74
ag74
ag74
ag74
ag74
ag74
ag74
ag74
ag74
ag74
ag74
ag74
ag74
ag74
ag74
ag74
ag74
ag74
ag74
ag74
ag74
ag74
ag74
ag74
ag74
ag74
ag74
ag74
ag74
ag74
ag74
ag74
ag74
ag74
ag74
ag74
ag74
ag74
ag74
ag74
ag74
ag74
ag74
ag74
ag74
ag74
ag74
ag74
ag74
ag74
ag74
ag74
ag74
ag74
ag74
ag74
ag74
ag74
ag74
ag74
ag74
ag74
ag74
ag74
ag74
ag74
ag74
ag74
ag74
ag74
ag74
ag74
ag74
ag74
ag74
ag74
ag74
ag74
ag74
ag74
ag74
ag74
ag74
ag74
ag74
ag74
ag74
ag74
ag74
ag74
ag74
ag74
ag74
ag74
ag74
ag74
ag74
ag74
ag74
ag74
ag74
ag74
ag74
ag74
ag74
ag74
ag74
ag74
ag74
ag74
ag74
ag74
ag74
ag74
ag74
ag74
ag74
ag74
ag74
ag74
ag74
ag74
ag74
ag74
ag74
ag74
ag74
ag74
ag74
ag74
ag74
ag74
ag74
ag74
ag74
ag74
ag74
ag74
ag74
ag74
ag74
ag74
ag74
ag74
ag74
ag74
ag74
ag74
ag74
ag74
ag74
ag74
ag74
ag74
ag74
ag74
ag74
ag74
ag74
ag74
ag74
ag74
ag74
ag74
ag74
ag74
ag74
ag74
ag74
ag74
ag74
ag74
ag74
ag74
ag74
ag74
ag74
ag74
ag74
ag74
ag74
ag74
ag74
ag74
ag74
ag74
ag74
ag74
ag74
ag74
ag74
ag74
ag74
ag74
ag74
ag74
ag74
ag74
ag74
ag74
ag74
ag74
ag74
ag74
ag74
ag74
ag74
ag74
ag74
ag74
ag74
ag74
ag74
ag74
ag74
ag74
ag74
ag74
ag74
ag74
ag74
ag74
ag74
ag74
ag74
ag74
ag74
ag74
ag74
ag74
ag74
ag74
ag74
ag74
ag74
ag74
ag74
ag74
ag74
ag74
ag74
ag74
ag74
ag74
ag74
ag74
ag74
ag74
ag74
ag74
ag74
ag74
ag74
ag74
ag74
ag74
ag74
ag74
ag74
ag74
ag74
ag74
ag74
ag74
ag74
ag74
ag74
ag74
ag74
ag74
ag74
ag74
ag74
ag74
ag74
ag74
ag74
ag74
ag74
ag74
ag74
ag74
ag74
ag74
ag74
ag74
ag74
ag74
ag74
ag74
ag74
ag74
ag74
ag74
ag74
ag74
ag74
ag74
ag74
ag74
ag74
ag74
ag74
ag74
ag74
ag74
ag74
ag74
ag74
ag74
ag74
ag74
ag74
ag74
ag74
ag74
ag74
ag74
ag74
ag74
ag74
ag74
ag74
ag74
ag74
ag74
ag74
ag74
ag74
ag74
ag74
ag74
ag74
ag74
ag74
ag74
ag74
ag74
ag74
aS'mark.frevert@enron.com'
p75
ag75
ag75
ag75
ag75
ag75
ag75
ag75
ag75
ag75
ag75
ag75
aS'rod.hayslett@enron.com'
p76
ag76
ag76
ag76
ag76
ag76
ag76
ag76
ag76
ag76
ag76
ag76
ag76
ag76
ag76
ag76
ag76
ag76
ag76
ag76
ag76
ag76
ag76
ag76
ag76
ag76
ag76
ag76
ag76
ag76
ag76
ag76
ag76
ag76
ag76
ag76
ag76
ag76
ag76
ag76
ag76
ag76
ag76
ag76
ag76
ag76
ag76
ag76
ag76
ag76
ag76
ag76
ag76
ag76
ag76
ag76
ag76
ag76
ag76
ag76
ag76
ag76
ag76
ag76
ag76
ag76
ag76
ag76
ag76
ag76
ag76
ag76
ag76
ag76
ag76
ag76
ag76
ag76
ag76
ag76
ag76
ag76
ag76
ag76
ag76
ag76
ag76
ag76
ag76
ag76
ag76
ag76
ag76
ag76
ag76
ag76
ag76
ag76
ag76
ag76
ag76
ag76
ag76
ag76
ag76
ag76
ag76
ag76
ag76
ag76
ag76
ag76
ag76
ag76
ag76
ag76
ag76
ag76
ag76
ag76
ag76
ag76
ag76
ag76
ag76
ag76
ag76
ag76
ag76
ag76
ag76
ag76
ag76
ag76
ag76
ag76
ag76
ag76
ag76
ag76
ag76
ag76
ag76
ag76
ag76
ag76
ag76
ag76
ag76
ag76
ag76
ag76
ag76
ag76
ag76
ag76
ag76
ag76
ag76
ag76
ag76
ag76
ag76
ag76
ag76
ag76
ag76
ag76
ag76
ag76
ag76
ag76
ag76
ag76
ag76
ag76
ag76
ag76
ag76
ag76
ag76
ag76
ag76
ag76
ag76
ag76
ag76
ag76
ag76
ag76
ag76
ag76
ag76
ag76
ag76
ag76
ag76
ag76
ag76
ag76
ag76
ag76
ag76
ag76
ag76
ag76
ag76
ag76
ag76
ag76
ag76
ag76
ag76
ag76
ag76
ag76
ag76
ag76
ag76
ag76
ag76
ag76
ag76
ag76
ag76
ag76
ag76
ag76
ag76
ag76
ag76
ag76
ag76
ag76
ag76
ag76
ag76
ag76
ag76
ag76
ag76
ag76
ag76
ag76
ag76
ag76
ag76
ag76
ag76
ag76
ag76
ag76
ag76
ag76
ag76
ag76
ag76
ag76
ag76
ag76
ag76
ag76
ag76
ag76
ag76
ag76
ag76
ag76
ag76
ag76
ag76
ag76
ag76
ag76
ag76
ag76
ag76
ag76
ag76
ag76
ag76
ag76
ag76
ag76
ag76
ag76
ag76
ag76
ag76
ag76
ag76
ag76
ag76
ag76
ag76
ag76
ag76
ag76
ag76
ag76
ag76
ag76
ag76
ag76
ag76
ag76
ag76
ag76
ag76
ag76
ag76
ag76
ag76
ag76
ag76
ag76
ag76
ag76
ag76
ag76
ag76
ag76
ag76
ag76
ag76
ag76
ag76
ag76
ag76
ag76
ag76
ag76
ag76
ag76
ag76
ag76
ag76
ag76
ag76
ag76
ag76
ag76
ag76
ag76
ag76
ag76
ag76
ag76
ag76
ag76
ag76
ag76
ag76
ag76
ag76
ag76
ag76
ag76
ag76
ag76
ag76
ag76
ag76
ag76
ag76
ag76
ag76
ag76
ag76
ag76
ag76
ag76
ag76
ag76
ag76
ag76
ag76
ag76
ag76
ag76
ag76
ag76
ag76
ag76
ag76
ag76
ag76
ag76
ag76
ag76
ag76
ag76
ag76
ag76
ag76
ag76
ag76
ag76
ag76
ag76
ag76
ag76
ag76
ag76
ag76
ag76
ag76
ag76
ag76
ag76
ag76
ag76
ag76
ag76
ag76
ag76
ag76
ag76
ag76
ag76
ag76
ag76
ag76
ag76
ag76
ag76
ag76
ag76
ag76
ag76
ag76
ag76
ag76
ag76
ag76
ag76
ag76
ag76
ag76
ag76
ag76
ag76
ag76
ag76
ag76
ag76
ag76
ag76
ag76
ag76
ag76
ag76
ag76
ag76
ag76
ag76
ag76
ag76
ag76
ag76
ag76
ag76
ag76
ag76
ag76
ag76
ag76
ag76
ag76
ag76
ag76
ag76
ag76
ag76
ag76
ag76
ag76
ag76
ag76
ag76
ag76
ag76
ag76
ag76
ag76
ag76
ag76
ag76
ag76
ag76
ag76
ag76
ag76
ag76
ag76
ag76
ag76
ag76
ag76
ag76
ag76
ag76
ag76
ag76
ag76
ag76
ag76
ag76
ag76
ag76
ag76
ag76
ag76
ag76
ag76
ag76
ag76
ag76
ag76
ag76
ag76
ag76
ag76
ag76
ag76
ag76
ag76
ag76
ag76
ag76
ag76
ag76
ag76
ag76
ag76
ag76
ag76
ag76
ag76
ag76
ag76
ag76
ag76
ag76
ag76
ag76
ag76
ag76
ag76
ag76
ag76
ag76
ag76
ag76
ag76
ag76
ag76
ag76
ag76
ag76
ag76
ag76
ag76
ag76
ag76
ag76
ag76
ag76
ag76
ag76
ag76
ag76
ag76
ag76
ag76
ag76
ag76
ag76
ag76
ag76
ag76
ag76
ag76
ag76
ag76
ag76
ag76
ag76
ag76
ag76
ag76
ag76
ag76
ag76
ag76
ag76
ag76
ag76
ag76
ag76
ag76
ag76
ag76
ag76
ag76
ag76
ag76
ag76
ag76
ag76
ag76
ag76
ag76
ag76
ag76
ag76
ag76
ag76
ag76
ag76
ag76
ag76
ag76
ag76
ag76
ag76
ag76
ag76
ag76
ag76
ag76
ag76
ag76
ag76
ag76
ag76
ag76
ag76
ag76
ag76
ag76
ag76
ag76
ag76
ag76
ag76
ag76
ag76
ag76
ag76
ag76
ag76
ag76
ag76
ag76
ag76
ag76
ag76
ag76
ag76
ag76
ag76
ag76
ag76
ag76
ag76
ag76
ag76
ag76
ag76
ag76
ag76
ag76
ag76
ag76
ag76
ag76
ag76
ag76
ag76
ag76
ag76
ag76
ag76
ag76
ag76
ag76
ag76
ag76
ag76
ag76
ag76
ag76
ag76
ag76
ag76
ag76
ag76
ag76
ag76
ag76
ag76
ag76
ag76
ag76
ag76
ag76
ag76
ag76
ag76
ag76
ag76
ag76
ag76
ag76
ag76
ag76
ag76
ag76
ag76
ag76
ag76
ag76
ag76
ag76
ag76
ag76
ag76
ag76
ag76
ag76
ag76
ag76
ag76
ag76
ag76
ag76
ag76
ag76
ag76
ag76
ag76
ag76
ag76
ag76
ag76
ag76
ag76
ag76
ag76
ag76
ag76
ag76
ag76
ag76
ag76
ag76
ag76
ag76
ag76
ag76
ag76
ag76
ag76
ag76
ag76
ag76
ag76
ag76
ag76
ag76
ag76
ag76
ag76
ag76
ag76
ag76
ag76
ag76
ag76
ag76
ag76
ag76
ag76
ag76
ag76
ag76
ag76
ag76
ag76
ag76
ag76
ag76
ag76
ag76
ag76
ag76
ag76
ag76
ag76
ag76
ag76
ag76
ag76
ag76
ag76
ag76
ag76
ag76
ag76
ag76
ag76
ag76
ag76
ag76
ag76
ag76
ag76
ag76
ag76
ag76
ag76
ag76
ag76
ag76
ag76
ag76
ag76
ag76
ag76
ag76
ag76
ag76
ag76
ag76
ag76
ag76
ag76
ag76
ag76
ag76
ag76
ag76
ag76
ag76
ag76
ag76
ag76
ag76
ag76
ag76
ag76
ag76
ag76
ag76
ag76
ag76
ag76
ag76
ag76
ag76
ag76
ag76
ag76
ag76
ag76
ag76
ag76
ag76
ag76
ag76
ag76
ag76
ag76
ag76
ag76
ag76
ag76
ag76
ag76
ag76
aS'jim.fallon@enron.com'
p77
ag77
ag77
ag77
ag77
ag77
ag77
ag77
ag77
ag77
ag77
ag77
ag77
ag77
ag77
ag77
ag77
ag77
ag77
ag77
ag77
ag77
ag77
ag77
ag77
ag77
ag77
ag77
ag77
ag77
ag77
ag77
ag77
ag77
ag77
ag77
ag77
ag77
ag77
ag77
ag77
ag77
ag77
ag77
ag77
ag77
ag77
ag77
ag77
ag77
ag77
ag77
ag77
ag77
ag77
ag77
ag77
ag77
ag77
ag77
ag77
ag77
ag77
ag77
ag77
ag77
ag77
ag77
aS'mark.koenig@enron.com'
p78
ag78
ag78
ag78
ag78
ag78
ag78
ag78
ag78
ag78
ag78
ag78
ag78
ag78
ag78
ag78
ag78
ag78
ag78
ag78
ag78
ag78
ag78
ag78
ag78
ag78
ag78
ag78
ag78
ag78
ag78
ag78
ag78
ag78
aS'larry.izzo@enron.com'
p79
ag79
ag79
ag79
ag79
ag79
ag79
aS'elizabeth.tilney@enron.com'
p80
ag80
ag80
ag80
ag80
ag80
ag80
ag80
ag80
ag80
ag80
aS'a..martin@enron.com'
p81
ag81
ag81
ag81
ag81
ag81
ag81
ag81
ag81
ag81
ag81
ag81
ag81
ag81
ag81
ag81
ag81
ag81
ag81
ag81
ag81
ag81
ag81
ag81
ag81
ag81
ag81
ag81
ag81
ag81
ag81
ag81
ag81
ag81
ag81
ag81
ag81
ag81
ag81
ag81
ag81
ag81
ag81
ag81
ag81
ag81
ag81
ag81
ag81
ag81
ag81
ag81
ag81
ag81
ag81
ag81
ag81
ag81
ag81
ag81
ag81
ag81
ag81
ag81
ag81
ag81
ag81
ag81
ag81
ag81
ag81
ag81
ag81
ag81
ag81
ag81
ag81
ag81
ag81
ag81
ag81
ag81
ag81
ag81
ag81
ag81
ag81
ag81
ag81
ag81
ag81
ag81
ag81
ag81
ag81
ag81
ag81
ag81
ag81
ag81
ag81
ag81
ag81
ag81
ag81
ag81
ag81
ag81
ag81
ag81
ag81
ag81
ag81
ag81
ag81
ag81
ag81
ag81
ag81
ag81
ag81
ag81
ag81
ag81
ag81
ag81
ag81
ag81
ag81
ag81
ag81
ag81
ag81
ag81
ag81
ag81
ag81
ag81
ag81
ag81
ag81
ag81
ag81
ag81
ag81
ag81
ag81
ag81
ag81
ag81
ag81
ag81
ag81
ag81
ag81
ag81
ag81
ag81
ag81
ag81
ag81
ag81
ag81
ag81
ag81
ag81
ag81
ag81
ag81
ag81
ag81
ag81
ag81
ag81
ag81
ag81
ag81
ag81
ag81
ag81
ag81
ag81
ag81
ag81
ag81
ag81
ag81
ag81
ag81
ag81
ag81
ag81
ag81
ag81
ag81
ag81
ag81
ag81
ag81
ag81
ag81
ag81
ag81
ag81
ag81
ag81
ag81
ag81
ag81
ag81
ag81
ag81
ag81
ag81
ag81
ag81
ag81
ag81
ag81
ag81
ag81
ag81
ag81
ag81
ag81
ag81
ag81
ag81
ag81
aS'rick.buy@enron.com'
p82
ag82
ag82
ag82
ag82
ag82
ag82
ag82
ag82
ag82
ag82
ag82
ag82
ag82
ag82
ag82
ag82
ag82
ag82
ag82
ag82
ag82
ag82
ag82
ag82
ag82
ag82
ag82
ag82
ag82
ag82
ag82
ag82
ag82
ag82
ag82
ag82
ag82
ag82
ag82
ag82
ag82
ag82
ag82
ag82
ag82
ag82
ag82
ag82
ag82
ag82
ag82
ag82
ag82
ag82
ag82
ag82
ag82
ag82
ag82
ag82
ag82
ag82
ag82
ag82
ag82
ag82
ag82
ag82
ag82
ag82
ag82
ag82
ag82
ag82
ag82
ag82
ag82
ag82
ag82
ag82
ag82
ag82
ag82
ag82
ag82
ag82
ag82
ag82
ag82
ag82
ag82
ag82
ag82
ag82
ag82
ag82
ag82
ag82
ag82
ag82
ag82
ag82
ag82
ag82
ag82
ag82
ag82
ag82
ag82
ag82
ag82
ag82
ag82
ag82
ag82
ag82
ag82
ag82
ag82
ag82
ag82
ag82
ag82
ag82
ag82
ag82
ag82
ag82
ag82
ag82
ag82
ag82
ag82
ag82
ag82
ag82
ag82
ag82
ag82
ag82
ag82
ag82
ag82
ag82
ag82
ag82
ag82
ag82
ag82
ag82
ag82
ag82
ag82
ag82
ag82
ag82
ag82
ag82
ag82
ag82
ag82
ag82
ag82
ag82
ag82
ag82
ag82
ag82
ag82
ag82
ag82
ag82
ag82
ag82
ag82
ag82
ag82
ag82
ag82
ag82
ag82
ag82
ag82
ag82
ag82
ag82
ag82
ag82
ag82
ag82
ag82
ag82
ag82
ag82
ag82
ag82
ag82
ag82
ag82
ag82
ag82
ag82
ag82
ag82
ag82
ag82
ag82
ag82
ag82
ag82
ag82
ag82
ag82
ag82
ag82
ag82
ag82
ag82
ag82
ag82
ag82
ag82
ag82
ag82
ag82
ag82
ag82
ag82
ag82
ag82
ag82
ag82
ag82
ag82
ag82
ag82
ag82
ag82
ag82
ag82
ag82
ag82
ag82
ag82
ag82
ag82
ag82
ag82
ag82
ag82
ag82
ag82
ag82
ag82
ag82
ag82
ag82
ag82
ag82
ag82
ag82
ag82
ag82
ag82
ag82
ag82
ag82
ag82
ag82
ag82
ag82
ag82
ag82
ag82
ag82
ag82
ag82
ag82
ag82
ag82
ag82
ag82
ag82
ag82
ag82
ag82
ag82
ag82
ag82
ag82
ag82
ag82
ag82
ag82
ag82
ag82
ag82
ag82
ag82
ag82
ag82
ag82
ag82
ag82
ag82
ag82
ag82
ag82
ag82
ag82
ag82
ag82
ag82
ag82
ag82
ag82
ag82
ag82
ag82
ag82
ag82
ag82
ag82
ag82
ag82
ag82
ag82
ag82
ag82
ag82
ag82
ag82
ag82
ag82
ag82
ag82
ag82
ag82
ag82
ag82
ag82
ag82
ag82
ag82
ag82
ag82
ag82
ag82
ag82
ag82
ag82
ag82
ag82
ag82
ag82
ag82
ag82
ag82
ag82
ag82
ag82
ag82
ag82
ag82
ag82
ag82
ag82
ag82
ag82
ag82
ag82
ag82
ag82
ag82
ag82
ag82
ag82
ag82
ag82
ag82
ag82
ag82
ag82
ag82
ag82
ag82
ag82
ag82
ag82
ag82
ag82
ag82
ag82
ag82
ag82
ag82
ag82
ag82
ag82
ag82
ag82
ag82
ag82
ag82
ag82
ag82
ag82
ag82
ag82
ag82
ag82
ag82
ag82
ag82
ag82
ag82
ag82
ag82
ag82
ag82
ag82
ag82
ag82
ag82
ag82
ag82
ag82
ag82
ag82
ag82
ag82
ag82
ag82
ag82
ag82
ag82
ag82
ag82
ag82
ag82
ag82
ag82
ag82
ag82
ag82
ag82
ag82
ag82
ag82
ag82
ag82
ag82
ag82
ag82
ag82
ag82
ag82
ag82
ag82
ag82
ag82
ag82
ag82
ag82
ag82
ag82
ag82
ag82
ag82
ag82
ag82
ag82
ag82
ag82
ag82
ag82
ag82
ag82
ag82
ag82
ag82
ag82
ag82
ag82
ag82
ag82
ag82
ag82
ag82
ag82
ag82
ag82
ag82
ag82
ag82
ag82
ag82
ag82
ag82
ag82
ag82
ag82
ag82
ag82
ag82
ag82
ag82
ag82
ag82
ag82
ag82
ag82
ag82
ag82
ag82
ag82
ag82
ag82
ag82
ag82
ag82
ag82
ag82
ag82
ag82
ag82
ag82
ag82
ag82
ag82
ag82
ag82
ag82
ag82
ag82
ag82
ag82
ag82
ag82
ag82
ag82
ag82
ag82
ag82
ag82
ag82
ag82
ag82
ag82
ag82
ag82
ag82
ag82
ag82
ag82
ag82
ag82
ag82
ag82
ag82
ag82
ag82
ag82
ag82
ag82
ag82
ag82
ag82
ag82
ag82
ag82
ag82
ag82
ag82
ag82
ag82
ag82
ag82
ag82
ag82
ag82
ag82
ag82
ag82
ag82
ag82
ag82
ag82
ag82
ag82
ag82
ag82
ag82
ag82
ag82
ag82
ag82
ag82
aS'richard.causey@enron.com'
p83
ag83
ag83
ag83
ag83
ag83
ag83
ag83
ag83
ag83
ag83
ag83
ag83
ag83
ag83
ag83
ag83
ag83
ag83
ag83
ag83
ag83
ag83
ag83
ag83
ag83
aS'mitchell.taylor@enron.com'
p84
ag84
ag84
ag84
ag84
ag84
aS'jeff.donahue@enron.com'
p85
ag85
ag85
ag85
ag85
ag85
ag85
ag85
ag85
ag85
ag85
ag85
ag85
ag85
ag85
ag85
ag85
ag85
ag85
ag85
aS'ben.glisan@enron.com'
p86
ag86
ag86
ag86
ag86
ag86
ag86
ag86
ag86
aS'gareth.bahlmann@enron.com'
p87
ag87
ag87
ag87
ag87
aS'sheila.knudsen@enron.com'
p88
ag88
ag88
ag88
ag88
ag88
ag88
ag88
ag88
ag88
ag88
ag88
ag88
ag88
aS'buylow@houston.rr.com'
p89
ag89
ag89
ag89
ag89
ag89
ag89
ag89
ag89
ag89
ag89
ag89
ag89
ag89
ag89
ag89
ag89
ag89
ag89
ag89
ag89
ag89
ag89
aS'timpowell@txu.com'
p90
ag90
ag90
ag90
ag90
ag90
ag90
ag90
ag90
ag90
ag90
ag90
ag90
ag90
ag90
ag90
ag90
ag90
ag90
ag90
ag90
ag90
ag90
ag90
ag90
ag90
ag90
ag90
ag90
ag90
ag90
ag90
ag90
ag90
ag90
ag90
ag90
ag90
ag90
ag90
ag90
ag90
ag90
ag90
ag90
ag90
ag90
ag90
ag90
ag90
ag90
ag90
aS'tom.doukas@enron.com'
p91
ag91
ag91
ag91
ag91
ag91
ag91
ag91
ag91
ag91
ag91
ag91
ag91
ag91
ag91
ag91
ag91
ag91
ag91
ag91
ag91
ag91
ag91
ag91
ag91
ag91
ag91
ag91
ag91
ag91
ag91
ag91
ag91
ag91
ag91
ag91
ag91
ag91
ag91
ag91
ag91
ag91
ag91
ag91
ag91
ag91
ag91
ag91
ag91
ag91
ag91
ag91
ag91
ag91
ag91
ag91
ag91
ag91
ag91
ag91
aS'carolyn.cooney@enron.com'
p92
ag92
ag92
ag92
ag92
ag92
ag92
ag92
ag92
ag92
ag92
ag92
ag92
ag92
ag92
ag92
aS'tom.chapman@enron.com'
p93
ag93
ag93
ag93
ag93
ag93
ag93
ag93
ag93
ag93
ag93
ag93
ag93
ag93
ag93
ag93
ag93
ag93
ag93
ag93
ag93
ag93
ag93
ag93
ag93
ag93
ag93
ag93
ag93
ag93
ag93
ag93
ag93
ag93
ag93
ag93
ag93
ag93
ag93
ag93
ag93
ag93
ag93
ag93
ag93
ag93
ag93
ag93
aS'trena.mcfarland@enron.com'
p94
ag94
ag94
ag94
ag94
ag94
ag94
ag94
ag94
ag94
ag94
ag94
ag94
aS'jons@amerexenergy.com'
p95
ag95
ag95
ag95
ag95
ag95
ag95
ag95
ag95
ag95
aS'scott.hendrickson@enron.com'
p96
ag96
ag96
ag96
ag96
ag96
ag96
ag96
ag96
ag96
ag96
ag96
ag96
ag96
ag96
ag96
ag96
ag96
ag96
ag96
ag96
ag96
ag96
ag96
ag96
ag96
ag96
ag96
ag96
ag96
ag96
ag96
ag96
ag96
ag96
ag96
ag96
ag96
ag96
ag96
ag96
ag96
ag96
ag96
ag96
ag96
ag96
ag96
ag96
ag96
ag96
ag96
ag96
ag96
ag96
ag96
ag96
ag96
ag96
ag96
ag96
ag96
ag96
ag96
ag96
ag96
ag96
ag96
ag96
ag96
ag96
ag96
ag96
ag96
ag96
ag96
aS'kysa.alport@enron.com'
p97
ag97
ag97
ag97
ag97
ag97
ag97
ag97
ag97
ag97
ag97
ag97
ag97
ag97
ag97
ag97
ag97
ag97
ag97
ag97
ag97
ag97
ag97
ag97
ag97
ag97
ag97
ag97
ag97
ag97
ag97
ag97
ag97
ag97
ag97
ag97
ag97
ag97
ag97
ag97
ag97
ag97
ag97
ag97
ag97
ag97
ag97
ag97
ag97
ag97
ag97
ag97
ag97
ag97
ag97
ag97
ag97
ag97
ag97
ag97
ag97
ag97
ag97
ag97
ag97
ag97
ag97
ag97
ag97
ag97
ag97
ag97
ag97
ag97
ag97
ag97
ag97
ag97
ag97
ag97
ag97
ag97
ag97
ag97
ag97
ag97
ag97
ag97
ag97
ag97
ag97
ag97
ag97
ag97
ag97
ag97
ag97
ag97
ag97
ag97
ag97
ag97
ag97
ag97
ag97
ag97
ag97
ag97
ag97
ag97
ag97
ag97
ag97
ag97
ag97
ag97
ag97
ag97
ag97
ag97
ag97
ag97
ag97
ag97
ag97
ag97
ag97
ag97
ag97
ag97
ag97
ag97
ag97
ag97
ag97
ag97
ag97
ag97
ag97
ag97
ag97
ag97
ag97
ag97
ag97
ag97
ag97
ag97
ag97
ag97
ag97
ag97
aS'stephen.swain@enron.com'
p98
ag98
ag98
ag98
ag98
ag98
aS'jan.moore@enron.com'
p99
ag99
ag99
ag99
ag99
ag99
ag99
ag99
ag99
ag99
ag99
ag99
ag99
ag99
ag99
ag99
ag99
ag99
ag99
ag99
ag99
ag99
ag99
ag99
ag99
ag99
ag99
ag99
ag99
ag99
ag99
ag99
ag99
ag99
ag99
ag99
ag99
ag99
ag99
ag99
ag99
ag99
ag99
ag99
ag99
ag99
ag99
ag99
ag99
ag99
ag99
ag99
ag99
ag99
ag99
ag99
ag99
ag99
ag99
ag99
ag99
ag99
ag99
ag99
ag99
ag99
ag99
ag99
ag99
ag99
ag99
ag99
ag99
ag99
ag99
ag99
ag99
ag99
ag99
ag99
ag99
ag99
ag99
ag99
ag99
ag99
ag99
ag99
ag99
ag99
ag99
ag99
ag99
ag99
ag99
ag99
ag99
ag99
ag99
ag99
ag99
ag99
ag99
ag99
ag99
ag99
ag99
ag99
ag99
ag99
ag99
ag99
ag99
ag99
ag99
ag99
ag99
ag99
ag99
ag99
ag99
ag99
ag99
ag99
ag99
ag99
ag99
ag99
ag99
ag99
ag99
ag99
ag99
ag99
ag99
ag99
ag99
ag99
ag99
ag99
ag99
ag99
ag99
ag99
ag99
ag99
ag99
ag99
ag99
ag99
ag99
ag99
ag99
ag99
ag99
ag99
ag99
ag99
ag99
ag99
ag99
ag99
ag99
ag99
ag99
ag99
ag99
ag99
ag99
ag99
ag99
ag99
ag99
ag99
ag99
aS'charlie.graham@enron.com'
p100
ag100
ag100
ag100
ag100
ag100
ag100
ag100
ag100
ag100
ag100
ag100
ag100
ag100
aS'dave.fuller@enron.com'
p101
ag101
ag101
ag101
ag101
ag101
ag101
ag101
ag101
ag101
ag101
ag101
ag101
ag101
ag101
ag101
ag101
ag101
ag101
ag101
ag101
ag101
ag101
ag101
ag101
ag101
ag101
ag101
ag101
ag101
ag101
ag101
ag101
ag101
ag101
ag101
ag101
ag101
ag101
ag101
ag101
ag101
ag101
ag101
ag101
ag101
ag101
ag101
ag101
ag101
ag101
ag101
ag101
ag101
ag101
ag101
ag101
ag101
ag101
ag101
ag101
ag101
ag101
ag101
ag101
ag101
ag101
ag101
ag101
ag101
ag101
ag101
ag101
ag101
ag101
ag101
ag101
ag101
ag101
ag101
ag101
ag101
ag101
ag101
ag101
ag101
ag101
ag101
ag101
aS'tracy.ngo@enron.com'
p102
ag102
ag102
ag102
ag102
ag102
ag102
ag102
ag102
ag102
ag102
ag102
ag102
ag102
ag102
ag102
ag102
ag102
ag102
ag102
ag102
ag102
ag102
ag102
ag102
ag102
ag102
ag102
ag102
ag102
ag102
ag102
ag102
ag102
ag102
ag102
ag102
ag102
ag102
ag102
ag102
ag102
ag102
ag102
ag102
ag102
ag102
ag102
ag102
ag102
ag102
ag102
ag102
ag102
ag102
ag102
ag102
ag102
ag102
ag102
ag102
ag102
ag102
ag102
ag102
ag102
ag102
ag102
ag102
ag102
ag102
ag102
ag102
ag102
ag102
ag102
ag102
ag102
ag102
ag102
ag102
ag102
ag102
ag102
ag102
ag102
ag102
ag102
ag102
ag102
ag102
ag102
ag102
ag102
ag102
ag102
ag102
ag102
ag102
ag102
ag102
ag102
ag102
ag102
ag102
ag102
ag102
aS'mona.l.petrochko@enron.com'
p103
ag103
ag103
ag103
ag103
ag103
ag103
ag103
ag103
ag103
ag103
ag103
ag103
ag103
ag103
ag103
ag103
ag103
ag103
ag103
ag103
ag103
ag103
ag103
ag103
ag103
ag103
ag103
ag103
ag103
ag103
aS'rebecca.griffin@enron.com'
p104
ag104
ag104
ag104
ag104
ag104
ag104
ag104
ag104
ag104
ag104
ag104
ag104
aS'russ.porter@enron.com'
p105
ag105
ag105
ag105
aS'tony.pryor@enron.com'
p106
ag106
ag106
ag106
ag106
ag106
ag106
ag106
ag106
ag106
ag106
ag106
ag106
ag106
ag106
ag106
ag106
ag106
ag106
ag106
ag106
ag106
ag106
ag106
ag106
ag106
ag106
ag106
ag106
aS'steve.hotte@enron.com'
p107
ag107
ag107
ag107
ag107
ag107
ag107
ag107
ag107
ag107
ag107
ag107
ag107
ag107
ag107
ag107
ag107
ag107
ag107
ag107
ag107
ag107
ag107
ag107
ag107
ag107
ag107
ag107
ag107
ag107
ag107
ag107
ag107
ag107
ag107
ag107
ag107
ag107
ag107
ag107
ag107
ag107
aS'raetta.zadow@enron.com'
p108
ag108
ag108
ag108
ag108
ag108
ag108
ag108
ag108
ag108
ag108
ag108
ag108
ag108
ag108
ag108
ag108
ag108
ag108
ag108
ag108
ag108
ag108
ag108
ag108
ag108
ag108
aS'cheryl.johnson@enron.com'
p109
ag109
ag109
ag109
ag109
ag109
ag109
ag109
ag109
ag109
ag109
ag109
ag109
ag109
ag109
ag109
ag109
ag109
ag109
ag109
ag109
ag109
ag109
ag109
ag109
ag109
ag109
ag109
ag109
ag109
ag109
ag109
ag109
ag109
ag109
ag109
ag109
ag109
ag109
ag109
ag109
ag109
ag109
ag109
ag109
ag109
ag109
ag109
ag109
ag109
ag109
ag109
ag109
ag109
ag109
ag109
ag109
ag109
ag109
ag109
ag109
ag109
ag109
ag109
ag109
ag109
ag109
ag109
ag109
ag109
ag109
ag109
ag109
ag109
ag109
ag109
ag109
ag109
ag109
ag109
ag109
ag109
ag109
ag109
ag109
ag109
ag109
ag109
ag109
ag109
ag109
ag109
ag109
ag109
ag109
ag109
ag109
ag109
ag109
ag109
ag109
ag109
ag109
ag109
ag109
ag109
ag109
ag109
ag109
ag109
ag109
ag109
ag109
ag109
ag109
ag109
ag109
ag109
ag109
ag109
ag109
ag109
ag109
ag109
ag109
ag109
ag109
ag109
ag109
ag109
ag109
ag109
ag109
ag109
ag109
ag109
ag109
ag109
ag109
ag109
ag109
ag109
ag109
ag109
ag109
ag109
ag109
ag109
ag109
ag109
ag109
ag109
ag109
ag109
ag109
ag109
ag109
ag109
ag109
ag109
ag109
ag109
ag109
ag109
ag109
ag109
ag109
ag109
ag109
ag109
ag109
ag109
ag109
ag109
ag109
ag109
ag109
ag109
ag109
ag109
ag109
ag109
ag109
ag109
ag109
ag109
ag109
ag109
ag109
ag109
ag109
ag109
ag109
ag109
ag109
ag109
ag109
ag109
ag109
ag109
ag109
ag109
ag109
ag109
ag109
ag109
ag109
ag109
ag109
ag109
ag109
ag109
ag109
ag109
ag109
ag109
ag109
ag109
ag109
ag109
ag109
ag109
ag109
ag109
ag109
ag109
ag109
ag109
ag109
ag109
ag109
ag109
ag109
aS'paul.simons@enron.com'
p110
ag110
ag110
ag110
ag110
ag110
ag110
ag110
ag110
ag110
ag110
ag110
ag110
ag110
ag110
ag110
ag110
ag110
ag110
ag110
ag110
ag110
ag110
ag110
ag110
ag110
ag110
ag110
ag110
ag110
ag110
ag110
ag110
ag110
ag110
ag110
ag110
ag110
ag110
ag110
ag110
ag110
ag110
ag110
ag110
ag110
ag110
ag110
ag110
ag110
ag110
ag110
ag110
ag110
ag110
ag110
ag110
ag110
ag110
ag110
ag110
ag110
ag110
ag110
ag110
ag110
aS'mark.mccoy@enron.com'
p111
ag111
ag111
ag111
ag111
ag111
ag111
ag111
ag111
ag111
ag111
ag111
ag111
ag111
ag111
ag111
ag111
ag111
ag111
ag111
ag111
ag111
ag111
ag111
ag111
ag111
ag111
ag111
ag111
ag111
ag111
ag111
ag111
ag111
ag111
ag111
ag111
ag111
ag111
ag111
ag111
ag111
ag111
ag111
ag111
ag111
ag111
ag111
ag111
ag111
ag111
ag111
ag111
ag111
ag111
ag111
ag111
ag111
ag111
ag111
ag111
ag111
ag111
ag111
ag111
ag111
ag111
ag111
ag111
ag111
aS'nancy.sellers@robertmondavi.com'
p112
ag112
ag112
ag112
ag112
ag112
ag112
ag112
ag112
ag112
ag112
ag112
ag112
ag112
ag112
ag112
ag112
ag112
ag112
ag112
ag112
ag112
ag112
ag112
ag112
ag112
ag112
ag112
ag112
ag112
ag112
ag112
ag112
ag112
ag112
ag112
ag112
ag112
ag112
ag112
ag112
ag112
ag112
ag112
ag112
ag112
ag112
ag112
ag112
ag112
ag112
ag112
ag112
ag112
ag112
ag112
ag112
ag112
ag112
ag112
ag112
ag112
ag112
ag112
ag112
ag112
ag112
ag112
ag112
ag112
ag112
ag112
ag112
ag112
ag112
ag112
ag112
ag112
ag112
ag112
ag112
ag112
ag112
ag112
ag112
ag112
ag112
ag112
ag112
ag112
ag112
ag112
ag112
ag112
ag112
ag112
ag112
ag112
ag112
ag112
ag112
ag112
ag112
ag112
ag112
ag112
ag112
ag112
ag112
ag112
ag112
ag112
ag112
ag112
ag112
ag112
ag112
ag112
ag112
ag112
ag112
ag112
ag112
ag112
ag112
ag112
ag112
ag112
ag112
ag112
ag112
ag112
ag112
ag112
ag112
ag112
ag112
ag112
ag112
ag112
ag112
ag112
ag112
ag112
ag112
ag112
ag112
ag112
ag112
ag112
ag112
ag112
ag112
ag112
ag112
ag112
ag112
ag112
ag112
ag112
ag112
ag112
ag112
ag112
ag112
ag112
ag112
ag112
ag112
ag112
ag112
ag112
ag112
ag112
ag112
ag112
ag112
ag112
ag112
ag112
ag112
ag112
ag112
aS'psellers@pacbell.net'
p113
ag113
ag113
ag113
ag113
ag113
ag113
ag113
ag113
ag113
ag113
ag113
ag113
ag113
ag113
ag113
ag113
ag113
ag113
ag113
ag113
ag113
ag113
ag113
ag113
ag113
aS'laura.glenn@enron.com'
p114
ag114
ag114
ag114
ag114
ag114
ag114
ag114
ag114
ag114
ag114
ag114
ag114
ag114
ag114
ag114
ag114
ag114
aS'brianc@saltgrass.com'
p115
ag115
ag115
ag115
ag115
ag115
ag115
ag115
ag115
ag115
ag115
ag115
ag115
ag115
ag115
ag115
ag115
ag115
ag115
ag115
ag115
ag115
ag115
ag115
ag115
ag115
ag115
ag115
ag115
ag115
ag115
ag115
ag115
ag115
ag115
ag115
ag115
ag115
ag115
ag115
ag115
ag115
ag115
ag115
ag115
ag115
ag115
ag115
ag115
ag115
ag115
ag115
ag115
ag115
ag115
ag115
ag115
ag115
ag115
ag115
ag115
ag115
ag115
ag115
ag115
ag115
ag115
ag115
ag115
ag115
ag115
ag115
ag115
ag115
ag115
ag115
ag115
ag115
ag115
ag115
ag115
ag115
ag115
ag115
ag115
ag115
ag115
aS'ron.matthews@enron.com'
p116
ag116
ag116
ag116
ag116
ag116
ag116
ag116
ag116
ag116
ag116
ag116
ag116
ag116
ag116
ag116
ag116
ag116
ag116
ag116
ag116
ag116
ag116
ag116
ag116
ag116
ag116
ag116
ag116
ag116
ag116
ag116
ag116
ag116
ag116
ag116
ag116
ag116
ag116
ag116
ag116
ag116
ag116
ag116
ag116
ag116
ag116
ag116
ag116
ag116
ag116
ag116
ag116
ag116
ag116
ag116
ag116
ag116
ag116
ag116
ag116
ag116
ag116
ag116
ag116
ag116
ag116
ag116
ag116
ag116
aS'igsinc@ix.netcom.com'
p117
ag117
ag117
ag117
ag117
ag117
ag117
ag117
ag117
aS'kelly.allen@enron.com'
p118
ag118
ag118
ag118
ag118
ag118
ag118
ag118
ag118
ag118
ag118
ag118
aS'daniel.reck@enron.com'
p119
ag119
ag119
ag119
ag119
ag119
ag119
ag119
ag119
ag119
ag119
ag119
ag119
ag119
ag119
ag119
ag119
ag119
ag119
aS'dolores.muzzy@enron.com'
p120
ag120
ag120
ag120
ag120
ag120
ag120
ag120
ag120
aS'chi325@hotmail.com'
p121
ag121
ag121
ag121
ag121
ag121
ag121
ag121
ag121
ag121
ag121
ag121
ag121
ag121
ag121
ag121
ag121
ag121
ag121
aS'j..porter@enron.com'
p122
ag122
ag122
ag122
ag122
ag122
ag122
ag122
ag122
ag122
ag122
ag122
ag122
ag122
ag122
ag122
ag122
ag122
ag122
ag122
ag122
ag122
ag122
ag122
ag122
aS'f..calger@enron.com'
p123
ag123
ag123
ag123
ag123
ag123
ag123
ag123
ag123
ag123
ag123
ag123
ag123
ag123
ag123
ag123
ag123
ag123
ag123
ag123
ag123
ag123
ag123
ag123
ag123
ag123
ag123
ag123
ag123
ag123
ag123
ag123
ag123
ag123
ag123
ag123
ag123
ag123
ag123
ag123
ag123
ag123
ag123
ag123
ag123
ag123
ag123
ag123
ag123
ag123
ag123
ag123
ag123
ag123
ag123
ag123
ag123
ag123
ag123
ag123
ag123
ag123
ag123
ag123
ag123
ag123
ag123
ag123
ag123
ag123
ag123
ag123
ag123
ag123
ag123
ag123
ag123
ag123
ag123
ag123
ag123
ag123
ag123
ag123
ag123
ag123
ag123
ag123
ag123
ag123
ag123
ag123
ag123
ag123
ag123
ag123
ag123
ag123
ag123
ag123
ag123
ag123
ag123
ag123
ag123
ag123
ag123
ag123
ag123
ag123
ag123
ag123
ag123
ag123
ag123
ag123
ag123
ag123
ag123
ag123
ag123
ag123
ag123
ag123
ag123
ag123
ag123
ag123
ag123
ag123
ag123
ag123
ag123
ag123
ag123
ag123
ag123
ag123
ag123
ag123
ag123
ag123
ag123
ag123
ag123
ag123
ag123
ag123
ag123
ag123
ag123
ag123
ag123
ag123
ag123
ag123
ag123
ag123
ag123
ag123
ag123
ag123
ag123
ag123
ag123
ag123
ag123
ag123
ag123
ag123
aS'gary.taylor@enron.com'
p124
ag124
ag124
ag124
ag124
ag124
ag124
aS'mechelle.stevens@enron.com'
p125
ag125
ag125
ag125
ag125
ag125
ag125
aS'diana.scholtes@enron.com'
p126
ag126
ag126
ag126
ag126
ag126
ag126
ag126
ag126
ag126
ag126
ag126
ag126
ag126
ag126
ag126
ag126
ag126
ag126
ag126
ag126
ag126
ag126
ag126
ag126
ag126
ag126
ag126
ag126
ag126
ag126
ag126
ag126
ag126
ag126
ag126
ag126
ag126
ag126
ag126
ag126
ag126
ag126
ag126
ag126
ag126
ag126
ag126
ag126
ag126
ag126
ag126
ag126
ag126
ag126
ag126
ag126
ag126
ag126
ag126
ag126
ag126
ag126
ag126
ag126
ag126
ag126
ag126
ag126
ag126
ag126
ag126
ag126
ag126
ag126
ag126
ag126
ag126
ag126
ag126
ag126
ag126
ag126
ag126
ag126
ag126
ag126
ag126
ag126
ag126
ag126
ag126
ag126
ag126
ag126
ag126
ag126
ag126
ag126
ag126
ag126
ag126
ag126
ag126
ag126
ag126
ag126
ag126
ag126
ag126
ag126
ag126
ag126
ag126
ag126
ag126
ag126
ag126
ag126
ag126
ag126
ag126
ag126
ag126
ag126
ag126
ag126
ag126
ag126
ag126
ag126
ag126
ag126
ag126
ag126
ag126
ag126
ag126
ag126
ag126
ag126
ag126
ag126
ag126
ag126
ag126
ag126
ag126
ag126
ag126
ag126
ag126
ag126
ag126
ag126
ag126
ag126
ag126
ag126
ag126
ag126
ag126
ag126
ag126
ag126
ag126
ag126
ag126
ag126
ag126
ag126
ag126
ag126
ag126
ag126
ag126
ag126
ag126
ag126
ag126
ag126
ag126
ag126
ag126
ag126
ag126
ag126
ag126
ag126
ag126
ag126
ag126
ag126
ag126
ag126
ag126
ag126
ag126
ag126
ag126
ag126
ag126
ag126
ag126
ag126
ag126
ag126
ag126
ag126
ag126
ag126
ag126
ag126
ag126
ag126
ag126
ag126
ag126
ag126
ag126
ag126
ag126
ag126
ag126
ag126
ag126
ag126
ag126
ag126
ag126
ag126
ag126
ag126
ag126
ag126
ag126
ag126
ag126
ag126
ag126
ag126
ag126
ag126
ag126
ag126
ag126
ag126
ag126
ag126
ag126
ag126
ag126
ag126
ag126
ag126
ag126
ag126
ag126
ag126
ag126
ag126
ag126
ag126
ag126
ag126
ag126
ag126
ag126
ag126
ag126
ag126
ag126
ag126
ag126
ag126
ag126
ag126
ag126
ag126
ag126
ag126
ag126
ag126
ag126
ag126
ag126
ag126
ag126
ag126
ag126
ag126
ag126
ag126
ag126
ag126
ag126
ag126
ag126
ag126
ag126
ag126
ag126
ag126
ag126
ag126
ag126
ag126
ag126
ag126
aS'david.merrill@enron.com'
p127
ag127
ag127
ag127
aS'john.arnold@enron.com'
p128
ag128
ag128
ag128
ag128
ag128
ag128
ag128
ag128
ag128
ag128
ag128
ag128
ag128
ag128
ag128
ag128
ag128
ag128
ag128
ag128
ag128
ag128
ag128
ag128
ag128
ag128
ag128
ag128
ag128
ag128
ag128
ag128
ag128
ag128
ag128
ag128
ag128
ag128
ag128
ag128
ag128
ag128
ag128
ag128
ag128
ag128
ag128
ag128
ag128
ag128
ag128
ag128
ag128
ag128
ag128
ag128
ag128
ag128
ag128
ag128
ag128
ag128
ag128
ag128
ag128
ag128
ag128
ag128
ag128
ag128
ag128
ag128
ag128
ag128
ag128
ag128
ag128
ag128
ag128
ag128
ag128
ag128
ag128
ag128
ag128
ag128
ag128
ag128
ag128
ag128
ag128
ag128
ag128
ag128
ag128
ag128
ag128
ag128
ag128
ag128
ag128
ag128
ag128
ag128
ag128
ag128
ag128
ag128
ag128
ag128
ag128
ag128
ag128
ag128
ag128
ag128
ag128
ag128
ag128
ag128
ag128
ag128
ag128
ag128
ag128
ag128
ag128
ag128
ag128
ag128
ag128
ag128
ag128
ag128
ag128
ag128
ag128
ag128
ag128
ag128
ag128
ag128
ag128
ag128
ag128
ag128
ag128
ag128
ag128
ag128
ag128
ag128
ag128
ag128
ag128
ag128
ag128
ag128
ag128
ag128
ag128
ag128
ag128
ag128
ag128
ag128
ag128
ag128
ag128
ag128
ag128
ag128
ag128
ag128
ag128
ag128
ag128
ag128
ag128
ag128
ag128
ag128
ag128
ag128
ag128
ag128
ag128
ag128
ag128
ag128
ag128
ag128
ag128
ag128
ag128
ag128
ag128
ag128
ag128
ag128
ag128
ag128
ag128
ag128
ag128
ag128
ag128
ag128
ag128
ag128
ag128
ag128
ag128
ag128
ag128
ag128
ag128
ag128
ag128
ag128
ag128
ag128
ag128
ag128
ag128
ag128
ag128
ag128
ag128
ag128
ag128
ag128
ag128
ag128
ag128
ag128
ag128
ag128
ag128
ag128
ag128
ag128
ag128
ag128
ag128
ag128
ag128
ag128
ag128
ag128
ag128
ag128
ag128
ag128
ag128
ag128
ag128
ag128
ag128
ag128
ag128
ag128
ag128
ag128
ag128
ag128
ag128
ag128
ag128
ag128
ag128
ag128
ag128
ag128
ag128
ag128
ag128
ag128
ag128
ag128
ag128
ag128
ag128
ag128
ag128
ag128
ag128
ag128
ag128
ag128
ag128
ag128
ag128
ag128
ag128
ag128
ag128
ag128
ag128
ag128
ag128
ag128
ag128
ag128
ag128
ag128
ag128
ag128
ag128
ag128
ag128
ag128
ag128
ag128
ag128
ag128
ag128
ag128
ag128
ag128
ag128
ag128
ag128
ag128
ag128
ag128
ag128
ag128
ag128
ag128
ag128
ag128
ag128
ag128
ag128
ag128
ag128
ag128
ag128
ag128
ag128
ag128
ag128
ag128
ag128
ag128
ag128
ag128
ag128
ag128
ag128
ag128
ag128
ag128
ag128
ag128
ag128
ag128
ag128
ag128
ag128
ag128
ag128
ag128
ag128
ag128
ag128
ag128
ag128
ag128
ag128
ag128
ag128
ag128
ag128
ag128
ag128
ag128
ag128
ag128
ag128
ag128
ag128
ag128
ag128
ag128
ag128
ag128
ag128
ag128
ag128
ag128
ag128
ag128
ag128
ag128
ag128
ag128
ag128
ag128
ag128
ag128
ag128
ag128
ag128
ag128
ag128
ag128
ag128
ag128
ag128
ag128
ag128
ag128
ag128
ag128
ag128
ag128
ag128
ag128
ag128
ag128
ag128
ag128
ag128
ag128
ag128
ag128
ag128
ag128
ag128
ag128
ag128
ag128
ag128
ag128
ag128
ag128
ag128
ag128
ag128
ag128
ag128
ag128
ag128
ag128
ag128
ag128
ag128
ag128
ag128
ag128
ag128
ag128
ag128
ag128
ag128
ag128
ag128
ag128
ag128
ag128
ag128
ag128
ag128
ag128
ag128
ag128
ag128
ag128
ag128
ag128
ag128
ag128
ag128
ag128
ag128
ag128
ag128
ag128
ag128
ag128
ag128
ag128
ag128
ag128
ag128
ag128
ag128
ag128
ag128
ag128
ag128
ag128
ag128
ag128
ag128
ag128
ag128
ag128
ag128
ag128
ag128
ag128
ag128
ag128
ag128
ag128
ag128
ag128
ag128
ag128
ag128
ag128
ag128
ag128
ag128
ag128
ag128
ag128
ag128
ag128
ag128
ag128
ag128
ag128
ag128
ag128
ag128
ag128
ag128
ag128
ag128
ag128
ag128
ag128
ag128
ag128
ag128
ag128
ag128
ag128
ag128
ag128
ag128
ag128
ag128
ag128
ag128
ag128
ag128
ag128
ag128
ag128
ag128
ag128
ag128
ag128
ag128
ag128
ag128
ag128
ag128
ag128
ag128
ag128
ag128
ag128
ag128
ag128
ag128
ag128
ag128
ag128
ag128
ag128
ag128
ag128
ag128
ag128
ag128
ag128
ag128
ag128
ag128
ag128
ag128
ag128
ag128
ag128
ag128
ag128
ag128
ag128
ag128
ag128
ag128
ag128
ag128
ag128
ag128
ag128
ag128
ag128
ag128
ag128
ag128
ag128
ag128
ag128
ag128
ag128
ag128
ag128
ag128
ag128
ag128
ag128
ag128
ag128
ag128
ag128
ag128
ag128
ag128
ag128
ag128
ag128
ag128
ag128
ag128
ag128
ag128
ag128
ag128
ag128
ag128
ag128
ag128
ag128
ag128
ag128
ag128
ag128
ag128
ag128
ag128
ag128
ag128
ag128
ag128
ag128
ag128
ag128
ag128
ag128
ag128
ag128
ag128
ag128
ag128
ag128
ag128
ag128
ag128
ag128
ag128
ag128
ag128
ag128
ag128
ag128
ag128
ag128
ag128
ag128
ag128
ag128
ag128
ag128
ag128
ag128
ag128
ag128
ag128
ag128
ag128
ag128
ag128
ag128
ag128
ag128
ag128
ag128
ag128
ag128
ag128
ag128
ag128
ag128
ag128
ag128
ag128
ag128
ag128
ag128
ag128
ag128
ag128
ag128
ag128
ag128
ag128
ag128
ag128
ag128
ag128
ag128
ag128
ag128
ag128
ag128
ag128
ag128
ag128
ag128
ag128
ag128
ag128
ag128
ag128
ag128
ag128
ag128
ag128
ag128
ag128
ag128
ag128
ag128
ag128
ag128
ag128
ag128
ag128
ag128
ag128
ag128
ag128
ag128
ag128
ag128
ag128
ag128
ag128
ag128
ag128
ag128
ag128
ag128
ag128
ag128
ag128
ag128
ag128
ag128
ag128
ag128
ag128
ag128
ag128
ag128
ag128
ag128
ag128
ag128
ag128
ag128
ag128
ag128
ag128
ag128
ag128
ag128
ag128
ag128
ag128
ag128
ag128
ag128
ag128
ag128
ag128
ag128
ag128
ag128
ag128
ag128
ag128
ag128
ag128
ag128
ag128
ag128
ag128
ag128
ag128
ag128
ag128
ag128
ag128
ag128
ag128
ag128
ag128
ag128
ag128
ag128
ag128
ag128
ag128
ag128
ag128
ag128
ag128
ag128
ag128
ag128
ag128
ag128
ag128
ag128
ag128
ag128
ag128
ag128
ag128
ag128
ag128
ag128
ag128
ag128
ag128
ag128
ag128
ag128
ag128
ag128
ag128
ag128
ag128
ag128
ag128
ag128
ag128
ag128
ag128
ag128
ag128
ag128
ag128
ag128
ag128
ag128
ag128
ag128
ag128
ag128
ag128
ag128
ag128
ag128
ag128
ag128
ag128
ag128
ag128
ag128
ag128
ag128
ag128
ag128
ag128
ag128
ag128
ag128
ag128
ag128
ag128
ag128
ag128
ag128
ag128
ag128
ag128
ag128
ag128
ag128
ag128
ag128
ag128
ag128
ag128
ag128
ag128
ag128
ag128
ag128
ag128
ag128
ag128
ag128
ag128
ag128
ag128
ag128
ag128
ag128
ag128
ag128
ag128
ag128
ag128
ag128
ag128
ag128
ag128
ag128
ag128
ag128
ag128
ag128
ag128
ag128
ag128
ag128
ag128
ag128
ag128
ag128
ag128
ag128
ag128
ag128
ag128
ag128
ag128
ag128
ag128
ag128
ag128
ag128
ag128
ag128
ag128
ag128
ag128
ag128
ag128
ag128
ag128
ag128
ag128
ag128
ag128
ag128
ag128
ag128
ag128
ag128
ag128
ag128
ag128
ag128
ag128
ag128
ag128
ag128
ag128
ag128
ag128
ag128
ag128
ag128
ag128
ag128
ag128
ag128
ag128
ag128
ag128
ag128
ag128
ag128
ag128
ag128
ag128
ag128
ag128
ag128
ag128
ag128
ag128
ag128
ag128
ag128
ag128
ag128
ag128
ag128
ag128
ag128
ag128
ag128
ag128
ag128
ag128
ag128
ag128
ag128
ag128
ag128
ag128
ag128
ag128
ag128
ag128
ag128
ag128
ag128
ag128
ag128
ag128
ag128
ag128
ag128
ag128
ag128
ag128
ag128
ag128
ag128
ag128
ag128
ag128
ag128
ag128
ag128
ag128
ag128
ag128
ag128
ag128
ag128
ag128
ag128
ag128
ag128
ag128
ag128
ag128
ag128
ag128
ag128
ag128
ag128
ag128
ag128
ag128
ag128
ag128
ag128
ag128
ag128
ag128
ag128
ag128
ag128
ag128
ag128
ag128
ag128
ag128
ag128
ag128
ag128
ag128
ag128
ag128
ag128
ag128
ag128
ag128
ag128
ag128
ag128
ag128
ag128
ag128
ag128
ag128
ag128
ag128
ag128
ag128
ag128
ag128
ag128
ag128
ag128
ag128
ag128
ag128
ag128
ag128
ag128
ag128
ag128
ag128
ag128
ag128
ag128
ag128
ag128
ag128
ag128
ag128
ag128
ag128
ag128
ag128
ag128
ag128
ag128
ag128
ag128
ag128
ag128
ag128
ag128
ag128
ag128
ag128
ag128
ag128
ag128
ag128
ag128
ag128
ag128
ag128
ag128
ag128
ag128
ag128
ag128
ag128
ag128
ag128
ag128
ag128
ag128
ag128
ag128
ag128
ag128
ag128
ag128
ag128
ag128
ag128
ag128
ag128
ag128
ag128
ag128
ag128
ag128
ag128
ag128
ag128
ag128
ag128
ag128
ag128
ag128
ag128
ag128
ag128
ag128
ag128
ag128
ag128
ag128
ag128
ag128
ag128
ag128
ag128
ag128
ag128
ag128
ag128
ag128
ag128
ag128
ag128
ag128
ag128
ag128
ag128
ag128
ag128
ag128
ag128
ag128
ag128
ag128
ag128
ag128
ag128
ag128
ag128
ag128
ag128
ag128
ag128
ag128
ag128
ag128
ag128
ag128
ag128
ag128
ag128
ag128
ag128
ag128
ag128
ag128
ag128
ag128
ag128
ag128
ag128
ag128
ag128
ag128
ag128
ag128
ag128
ag128
ag128
ag128
ag128
ag128
ag128
ag128
ag128
ag128
ag128
ag128
ag128
ag128
ag128
ag128
ag128
ag128
ag128
ag128
ag128
ag128
ag128
ag128
ag128
ag128
ag128
ag128
ag128
ag128
ag128
ag128
ag128
ag128
ag128
ag128
ag128
ag128
ag128
ag128
ag128
ag128
ag128
ag128
ag128
ag128
ag128
ag128
ag128
ag128
ag128
ag128
ag128
ag128
ag128
ag128
ag128
ag128
ag128
ag128
ag128
ag128
ag128
ag128
ag128
ag128
ag128
ag128
ag128
ag128
ag128
ag128
ag128
ag128
ag128
ag128
ag128
ag128
ag128
ag128
ag128
ag128
ag128
ag128
ag128
ag128
ag128
ag128
ag128
ag128
ag128
ag128
ag128
ag128
ag128
ag128
ag128
ag128
ag128
ag128
ag128
ag128
ag128
ag128
ag128
ag128
ag128
ag128
ag128
ag128
ag128
ag128
ag128
ag128
ag128
ag128
ag128
ag128
ag128
ag128
ag128
ag128
ag128
ag128
ag128
ag128
ag128
ag128
ag128
ag128
ag128
ag128
ag128
ag128
ag128
ag128
ag128
ag128
ag128
ag128
ag128
ag128
ag128
ag128
ag128
ag128
ag128
ag128
ag128
ag128
ag128
ag128
ag128
ag128
ag128
ag128
ag128
ag128
ag128
ag128
ag128
ag128
ag128
ag128
ag128
ag128
ag128
ag128
ag128
ag128
ag128
ag128
ag128
ag128
ag128
ag128
ag128
ag128
ag128
ag128
ag128
ag128
ag128
ag128
ag128
ag128
ag128
ag128
ag128
ag128
ag128
ag128
ag128
ag128
ag128
ag128
ag128
ag128
ag128
ag128
ag128
ag128
ag128
ag128
ag128
ag128
ag128
ag128
ag128
ag128
ag128
ag128
ag128
ag128
ag128
ag128
ag128
ag128
ag128
ag128
ag128
ag128
ag128
ag128
ag128
ag128
ag128
ag128
ag128
ag128
ag128
ag128
ag128
ag128
ag128
ag128
ag128
ag128
ag128
ag128
ag128
ag128
ag128
ag128
ag128
ag128
ag128
ag128
ag128
ag128
ag128
ag128
ag128
ag128
ag128
ag128
ag128
ag128
ag128
ag128
ag128
ag128
ag128
ag128
ag128
ag128
ag128
ag128
ag128
ag128
ag128
ag128
ag128
ag128
ag128
ag128
ag128
ag128
ag128
ag128
ag128
ag128
ag128
ag128
ag128
ag128
ag128
ag128
ag128
ag128
ag128
ag128
ag128
ag128
ag128
ag128
ag128
ag128
ag128
ag128
ag128
ag128
ag128
ag128
ag128
ag128
ag128
ag128
ag128
ag128
ag128
ag128
ag128
ag128
ag128
ag128
ag128
ag128
ag128
ag128
ag128
ag128
ag128
ag128
ag128
ag128
ag128
ag128
ag128
ag128
ag128
ag128
ag128
ag128
ag128
ag128
ag128
ag128
ag128
ag128
ag128
ag128
ag128
ag128
ag128
ag128
ag128
ag128
ag128
ag128
ag128
ag128
ag128
ag128
aS'paul.hennemeyer@enron.com'
p129
ag129
ag129
ag129
ag129
ag129
ag129
ag129
ag129
ag129
ag129
ag129
ag129
ag129
ag129
ag129
ag129
ag129
ag129
aS'carl.carter@enron.com'
p130
ag130
ag130
ag130
ag130
ag130
ag130
ag130
ag130
ag130
ag130
ag130
ag130
ag130
ag130
ag130
ag130
ag130
ag130
aS'kay.young@enron.com'
p131
ag131
ag131
ag131
ag131
ag131
ag131
ag131
ag131
ag131
ag131
ag131
ag131
ag131
ag131
ag131
ag131
ag131
ag131
ag131
ag131
ag131
ag131
ag131
ag131
ag131
ag131
ag131
ag131
ag131
ag131
ag131
ag131
ag131
ag131
ag131
ag131
ag131
ag131
ag131
ag131
ag131
ag131
ag131
ag131
ag131
ag131
ag131
ag131
ag131
ag131
ag131
ag131
ag131
ag131
ag131
ag131
ag131
ag131
ag131
ag131
ag131
ag131
ag131
ag131
ag131
ag131
ag131
ag131
ag131
ag131
ag131
ag131
ag131
ag131
ag131
ag131
ag131
ag131
ag131
ag131
ag131
ag131
ag131
ag131
ag131
ag131
ag131
ag131
ag131
ag131
ag131
ag131
ag131
ag131
ag131
ag131
ag131
ag131
ag131
ag131
ag131
ag131
ag131
ag131
ag131
ag131
ag131
ag131
ag131
ag131
ag131
ag131
ag131
ag131
ag131
ag131
ag131
ag131
ag131
ag131
ag131
ag131
ag131
ag131
ag131
ag131
ag131
ag131
ag131
aS'laurel.adams@enron.com'
p132
ag132
ag132
ag132
ag132
ag132
ag132
ag132
ag132
ag132
ag132
ag132
ag132
ag132
ag132
ag132
ag132
ag132
ag132
ag132
ag132
ag132
ag132
ag132
ag132
ag132
ag132
ag132
ag132
ag132
ag132
ag132
ag132
ag132
ag132
ag132
ag132
ag132
ag132
ag132
ag132
ag132
ag132
ag132
ag132
ag132
ag132
ag132
ag132
ag132
ag132
ag132
ag132
ag132
ag132
ag132
ag132
ag132
ag132
ag132
ag132
ag132
ag132
ag132
ag132
ag132
ag132
ag132
ag132
ag132
ag132
ag132
ag132
ag132
ag132
ag132
ag132
ag132
ag132
ag132
ag132
ag132
ag132
ag132
ag132
ag132
ag132
ag132
ag132
ag132
ag132
ag132
ag132
ag132
ag132
ag132
ag132
aS'dwa3@pge.com'
p133
ag133
ag133
ag133
ag133
ag133
aS'miyung.buster@enron.com'
p134
ag134
ag134
ag134
ag134
ag134
ag134
ag134
ag134
ag134
ag134
ag134
ag134
ag134
ag134
ag134
ag134
ag134
ag134
ag134
ag134
ag134
ag134
ag134
ag134
ag134
ag134
ag134
ag134
ag134
ag134
ag134
ag134
ag134
ag134
ag134
ag134
ag134
ag134
ag134
ag134
ag134
ag134
ag134
ag134
ag134
ag134
ag134
ag134
ag134
ag134
ag134
ag134
ag134
ag134
ag134
ag134
ag134
ag134
ag134
ag134
ag134
ag134
ag134
ag134
ag134
ag134
ag134
ag134
ag134
ag134
ag134
ag134
ag134
ag134
ag134
ag134
ag134
ag134
ag134
ag134
ag134
ag134
ag134
ag134
ag134
ag134
ag134
ag134
ag134
ag134
ag134
ag134
ag134
ag134
ag134
ag134
ag134
ag134
ag134
ag134
ag134
ag134
ag134
ag134
ag134
ag134
ag134
ag134
ag134
ag134
ag134
ag134
ag134
ag134
ag134
ag134
ag134
ag134
ag134
ag134
ag134
ag134
ag134
ag134
ag134
ag134
ag134
ag134
ag134
ag134
ag134
ag134
ag134
ag134
ag134
ag134
ag134
ag134
ag134
ag134
ag134
ag134
ag134
ag134
ag134
ag134
ag134
ag134
ag134
ag134
ag134
ag134
ag134
ag134
ag134
ag134
ag134
ag134
ag134
ag134
ag134
ag134
ag134
ag134
ag134
ag134
ag134
ag134
ag134
ag134
ag134
ag134
ag134
ag134
ag134
ag134
ag134
ag134
ag134
ag134
ag134
ag134
ag134
aS'bradley.holmes@enron.com'
p135
ag135
ag135
ag135
ag135
ag135
ag135
ag135
ag135
ag135
ag135
ag135
ag135
ag135
ag135
ag135
ag135
ag135
ag135
ag135
ag135
ag135
ag135
ag135
ag135
ag135
ag135
ag135
aS'sheila.glover@enron.com'
p136
ag136
ag136
ag136
ag136
ag136
ag136
ag136
ag136
ag136
ag136
ag136
ag136
ag136
ag136
ag136
ag136
ag136
ag136
ag136
ag136
ag136
ag136
ag136
ag136
ag136
ag136
ag136
ag136
ag136
ag136
ag136
ag136
ag136
ag136
ag136
ag136
ag136
ag136
ag136
ag136
ag136
ag136
ag136
ag136
ag136
ag136
ag136
ag136
ag136
ag136
ag136
ag136
ag136
ag136
ag136
ag136
ag136
ag136
ag136
ag136
ag136
ag136
ag136
ag136
ag136
ag136
ag136
ag136
ag136
ag136
ag136
ag136
ag136
ag136
ag136
ag136
ag136
ag136
ag136
ag136
ag136
ag136
ag136
ag136
ag136
ag136
ag136
ag136
ag136
ag136
ag136
ag136
ag136
ag136
ag136
ag136
ag136
ag136
ag136
ag136
ag136
ag136
ag136
ag136
ag136
ag136
ag136
ag136
ag136
ag136
ag136
ag136
ag136
ag136
ag136
ag136
ag136
ag136
ag136
ag136
ag136
ag136
ag136
ag136
ag136
ag136
ag136
ag136
ag136
ag136
ag136
ag136
ag136
ag136
ag136
ag136
ag136
ag136
ag136
ag136
ag136
ag136
ag136
ag136
ag136
ag136
ag136
ag136
ag136
ag136
ag136
ag136
ag136
ag136
ag136
ag136
ag136
ag136
ag136
ag136
ag136
ag136
ag136
ag136
ag136
ag136
ag136
ag136
ag136
ag136
ag136
ag136
ag136
ag136
ag136
ag136
ag136
ag136
ag136
ag136
ag136
ag136
ag136
ag136
ag136
ag136
ag136
ag136
ag136
ag136
ag136
ag136
ag136
ag136
ag136
ag136
ag136
ag136
ag136
ag136
ag136
ag136
ag136
ag136
ag136
ag136
ag136
ag136
ag136
ag136
ag136
ag136
ag136
ag136
ag136
ag136
ag136
ag136
ag136
ag136
ag136
ag136
ag136
ag136
ag136
ag136
ag136
ag136
ag136
ag136
ag136
ag136
ag136
ag136
ag136
ag136
ag136
ag136
ag136
ag136
ag136
ag136
ag136
ag136
ag136
ag136
ag136
ag136
ag136
ag136
ag136
ag136
ag136
ag136
ag136
ag136
ag136
ag136
ag136
ag136
ag136
ag136
ag136
ag136
ag136
ag136
ag136
ag136
ag136
ag136
ag136
ag136
ag136
ag136
ag136
ag136
ag136
ag136
ag136
ag136
ag136
ag136
ag136
ag136
ag136
ag136
ag136
ag136
ag136
ag136
ag136
ag136
ag136
ag136
ag136
ag136
ag136
ag136
ag136
ag136
ag136
ag136
ag136
ag136
ag136
ag136
ag136
ag136
ag136
ag136
ag136
ag136
ag136
ag136
ag136
aS'ricki.winters@enron.com'
p137
ag137
ag137
ag137
ag137
ag137
ag137
ag137
ag137
ag137
ag137
ag137
ag137
ag137
ag137
ag137
ag137
ag137
ag137
ag137
ag137
ag137
ag137
ag137
ag137
ag137
ag137
ag137
ag137
ag137
ag137
ag137
ag137
ag137
ag137
ag137
ag137
ag137
ag137
ag137
ag137
ag137
ag137
ag137
ag137
ag137
ag137
ag137
ag137
ag137
ag137
ag137
ag137
ag137
ag137
ag137
ag137
ag137
ag137
ag137
ag137
ag137
ag137
ag137
ag137
ag137
ag137
ag137
ag137
ag137
ag137
ag137
ag137
ag137
ag137
ag137
ag137
ag137
ag137
ag137
ag137
ag137
ag137
ag137
ag137
ag137
ag137
ag137
ag137
ag137
ag137
ag137
ag137
ag137
ag137
ag137
aS'linda.trevino@enron.com'
p138
ag138
ag138
ag138
ag138
ag138
ag138
ag138
ag138
ag138
ag138
ag138
ag138
ag138
ag138
ag138
ag138
ag138
ag138
ag138
ag138
ag138
ag138
ag138
aS'donna.lowry@enron.com'
p139
ag139
ag139
ag139
ag139
ag139
ag139
ag139
ag139
ag139
ag139
ag139
ag139
ag139
ag139
ag139
ag139
ag139
ag139
ag139
ag139
ag139
ag139
ag139
ag139
ag139
ag139
ag139
ag139
ag139
ag139
ag139
ag139
ag139
ag139
ag139
ag139
ag139
ag139
ag139
ag139
ag139
ag139
ag139
ag139
ag139
ag139
ag139
ag139
ag139
ag139
aS'carey.metz@enron.com'
p140
ag140
ag140
ag140
aS'henry.means@enron.com'
p141
ag141
ag141
ag141
ag141
ag141
ag141
ag141
ag141
ag141
ag141
ag141
ag141
ag141
ag141
ag141
ag141
ag141
ag141
ag141
ag141
ag141
a.